Certificate Request:
    Data:
        Version: 1 (0x0)
        Subject: C = US, ST = Texas, L = Austin, O = PyCA, CN = cryptography.io
        Subject Public Key Info:
            Public Key Algorithm: rsaEncryption
                RSA Public-Key: (2048 bit)
                Modulus:
                    00:cc:72:54:2d:83:be:73:f5:9a:60:3f:b8:bd:78:
                    7d:f4:3d:6e:31:38:a9:26:72:86:19:14:87:0d:f4:
                    68:97:19:2f:d7:7c:80:45:ad:38:27:59:db:57:76:
                    a5:f3:b1:5e:34:5f:43:63:e5:24:0a:0f:c6:ab:39:
                    69:d1:1a:87:68:8c:98:02:3a:08:1c:25:d7:65:30:
                    c3:b6:a9:fa:df:ca:9d:4b:4c:b3:00:a7:fa:ea:de:
                    ad:99:d2:67:5f:c4:15:0d:b3:70:4d:b2:0a:a7:dd:
                    35:67:35:b9:4f:a8:b2:f6:a6:22:26:b6:ae:e8:ed:
                    2d:e7:82:7e:a5:f2:2c:05:d5:03:5a:2e:1e:d0:62:
                    79:04:55:4b:b3:99:94:8b:9f:6a:5e:ee:6e:b3:d4:
                    f0:d4:9a:82:ce:e3:f4:81:5c:b2:db:24:85:b8:e4:
                    1c:6f:a8:3d:4e:91:27:6a:fe:48:29:f2:09:40:9e:
                    a1:e2:34:41:18:29:ce:f5:24:11:d9:22:2f:6f:94:
                    cf:22:4e:ba:f2:38:90:00:70:d5:86:d4:6d:c2:ce:
                    6c:32:74:75:df:f1:1f:c9:a0:be:43:2b:84:34:db:
                    34:2f:d3:15:8f:ff:85:62:40:79:d3:3c:04:a2:b8:
                    43:34:ae:c2:3e:1d:ad:c0:4b:28:34:c2:6d:7e:e2:
                    9f:75
                Exponent: 65537 (0x10001)
        Attributes:
        Requested Extensions:
            X509v3 Basic Constraints: critical
                CA:FALSE
            X509v3 Basic Constraints: critical
                CA:FALSE
    Signature Algorithm: sha1WithRSAEncryption
         b8:00:de:3c:28:bf:56:9a:a7:8f:50:a3:86:a3:02:91:8b:97:
         1c:b8:73:81:c2:fd:85:d7:6f:ba:b1:c3:18:8a:17:d9:66:cd:
         b9:9a:9c:1f:c8:0b:88:33:b7:4e:97:b2:60:43:ea:13:57:13:
         17:7c:23:7d:22:6e:65:b0:0a:bc:dc:12:ec:b3:85:2f:1b:c9:
         ef:9c:19:f3:15:fd:78:89:a6:d1:2d:b8:bf:b6:17:b8:dc:b5:
         7a:e6:2a:4d:2c:da:01:10:31:96:12:13:49:08:1b:d9:ba:97:
         54:e4:21:b8:50:92:9d:1f:30:f0:a2:de:99:8e:da:0e:1f:84:
         d4:22:2a:f6:d4:3b:43:81:25:ca:2a:e2:17:f6:ef:2f:db:df:
         67:dc:0f:1b:36:ac:46:b4:39:3b:d6:17:1a:12:fb:5f:1d:28:
         db:9f:66:38:64:b7:43:ab:84:49:11:3b:ae:f1:30:cf:79:7e:
         a6:52:ff:91:cb:9c:53:09:44:89:83:cf:04:7b:3c:12:7b:8f:
         56:e7:48:9a:e5:2a:f3:1f:93:ec:07:5f:1d:f1:6d:59:ed:5e:
         f6:6a:be:63:60:02:f4:65:34:fb:dc:0a:1b:b3:99:b5:4b:4f:
         66:55:35:d3:79:85:48:7e:ca:0e:06:0f:92:00:27:93:79:ce:
         f7:2f:ad:2b
-----BEGIN CERTIFICATE REQUEST-----
MIICyTCCAbECAQAwVzELMAkGA1UEBhMCVVMxDjAMBgNVBAgMBVRleGFzMQ8wDQYD
VQQHDAZBdXN0aW4xDTALBgNVBAoMBFB5Q0ExGDAWBgNVBAMMD2NyeXB0b2dyYXBo
eS5pbzCCASIwDQYJKoZIhvcNAQEBBQADggEPADCCAQoCggEBAMxyVC2DvnP1mmA/
uL14ffQ9bjE4qSZyhhkUhw30aJcZL9d8gEWtOCdZ21d2pfOxXjRfQ2PlJAoPxqs5
adEah2iMmAI6CBwl12Uww7ap+t/KnUtMswCn+urerZnSZ1/EFQ2zcE2yCqfdNWc1
uU+osvamIia2rujtLeeCfqXyLAXVA1ouHtBieQRVS7OZlIufal7ubrPU8NSags7j
9IFcstskhbjkHG+oPU6RJ2r+SCnyCUCeoeI0QRgpzvUkEdkiL2+UzyJOuvI4kABw
1YbUbcLObDJ0dd/xH8mgvkMrhDTbNC/TFY//hWJAedM8BKK4QzSuwj4drcBLKDTC
bX7in3UCAwEAAaAtMCsGCSqGSIb3DQEJDjEeMBwwDAYDVR0TAQH/BAIwADAMBgNV
HRMBAf8EAjAAMA0GCSqGSIb3DQEBBQUAA4IBAQC4AN48KL9WmqePUKOGowKRi5cc
uHOBwv2F12+6scMYihfZZs25mpwfyAuIM7dOl7JgQ+oTVxMXfCN9Im5lsAq83BLs
s4UvG8nvnBnzFf14iabRLbi/the43LV65ipNLNoBEDGWEhNJCBvZupdU5CG4UJKd
HzDwot6ZjtoOH4TUIir21DtDgSXKKuIX9u8v299n3A8bNqxGtDk71hcaEvtfHSjb
n2Y4ZLdDq4RJETuu8TDPeX6mUv+Ry5xTCUSJg88EezwSe49W50ia5SrzH5PsB18d
8W1Z7V72ar5jYAL0ZTT73Aobs5m1S09mVTXTeYVIfsoOBg+SACeTec73L60r
-----END CERTIFICATE REQUEST-----
