Certificate Request:
    Data:
        Version: 1 (0x0)
        Subject: C = US, ST = Texas, L = Austin, O = PyCA, CN = cryptography.io
        Subject Public Key Info:
            Public Key Algorithm: rsaEncryption
                RSA Public-Key: (2048 bit)
                Modulus:
                    00:ce:ed:18:2c:b8:63:f6:65:50:1e:ec:7e:7b:86:
                    56:25:3e:3d:5d:86:6e:9a:d1:56:b0:79:b7:85:c9:
                    14:23:4d:ff:10:c7:68:f2:00:b6:57:39:a6:5d:3f:
                    ed:50:67:cd:bd:da:fb:68:a9:0f:79:a9:0e:79:23:
                    62:d0:d1:27:96:f2:d6:36:b9:6d:4e:d6:4e:0f:32:
                    88:9b:0b:90:98:31:00:fa:2e:ca:ac:82:e3:c3:60:
                    1c:8e:f1:be:0d:1e:bc:b6:f7:a7:9b:60:aa:4b:9a:
                    a5:04:b5:a0:a8:29:0b:21:af:2c:40:26:87:75:85:
                    3c:00:38:4d:a4:f9:25:8e:d5:d7:11:b4:dd:3c:27:
                    11:0c:1c:1c:86:63:35:66:d6:47:73:6c:bd:00:03:
                    2b:4a:d0:90:db:8c:e8:b4:8d:2a:ff:90:8f:0b:c8:
                    32:ed:b3:23:7f:ce:01:74:26:f6:84:e6:53:54:44:
                    45:e8:53:20:54:ec:00:6d:60:13:2b:bb:da:fe:19:
                    82:db:a6:6c:72:fb:be:26:d2:9d:03:fd:7f:72:94:
                    06:4e:25:d3:17:12:c5:2b:d6:a5:e1:29:3c:7b:d7:
                    da:da:89:bf:a9:09:41:ab:73:fb:8d:8b:3f:83:4b:
                    f1:bb:2b:5f:c6:a9:03:e6:c9:0a:fc:0a:f4:82:e1:
                    4b:97
                Exponent: 65537 (0x10001)
        Attributes:
        Requested Extensions:
            1.2.3.4: critical
                value
    Signature Algorithm: sha1WithRSAEncryption
         2c:70:0f:a6:d0:0d:70:24:a8:94:ad:4b:1d:50:46:19:7c:c0:
         a8:fb:01:84:3b:3b:7e:b0:6f:6b:d9:86:81:a3:d4:03:e9:d7:
         0c:f6:ff:c6:43:00:88:59:7b:bc:8f:6d:3d:46:4d:a1:0b:40:
         ba:7e:13:4e:4f:1d:02:35:e4:5b:30:a0:a8:fc:4d:49:a5:1b:
         11:19:57:25:58:57:03:09:55:56:cb:50:94:54:f9:15:a3:de:
         ab:96:0d:b8:98:9d:0f:c7:16:e1:d6:0b:3b:7a:a2:53:07:d2:
         3c:f7:89:62:66:a4:34:39:c9:03:35:2b:a5:27:69:94:7d:56:
         dc:72:8c:bc:3a:33:15:86:f8:c3:19:bb:c2:1d:51:3e:a9:1c:
         5c:8b:7a:63:18:1b:78:57:f4:14:be:39:90:38:d1:b6:8d:e1:
         45:63:1e:e1:32:54:3e:52:e9:5d:4d:d5:3c:65:b1:21:e3:00:
         88:f4:28:f7:34:f4:ac:08:54:59:4d:7b:b5:f4:84:d0:66:df:
         98:10:a3:38:bd:2c:e2:fa:87:7c:3f:c8:36:e6:a5:e1:b9:00:
         7d:c0:3a:40:69:b2:df:f9:c0:af:9f:e3:c6:48:a6:b6:69:0f:
         e2:9e:36:dd:e8:ee:02:a1:10:1e:78:e6:c6:c3:b4:12:21:2d:
         70:4c:c0:b4
-----BEGIN CERTIFICATE REQUEST-----
MIICvjCCAaYCAQAwVzELMAkGA1UEBhMCVVMxDjAMBgNVBAgMBVRleGFzMQ8wDQYD
VQQHDAZBdXN0aW4xDTALBgNVBAoMBFB5Q0ExGDAWBgNVBAMMD2NyeXB0b2dyYXBo
eS5pbzCCASIwDQYJKoZIhvcNAQEBBQADggEPADCCAQoCggEBAM7tGCy4Y/ZlUB7s
fnuGViU+PV2GbprRVrB5t4XJFCNN/xDHaPIAtlc5pl0/7VBnzb3a+2ipD3mpDnkj
YtDRJ5by1ja5bU7WTg8yiJsLkJgxAPouyqyC48NgHI7xvg0evLb3p5tgqkuapQS1
oKgpCyGvLEAmh3WFPAA4TaT5JY7V1xG03TwnEQwcHIZjNWbWR3NsvQADK0rQkNuM
6LSNKv+QjwvIMu2zI3/OAXQm9oTmU1RERehTIFTsAG1gEyu72v4ZgtumbHL7vibS
nQP9f3KUBk4l0xcSxSvWpeEpPHvX2tqJv6kJQatz+42LP4NL8bsrX8apA+bJCvwK
9ILhS5cCAwEAAaAiMCAGCSqGSIb3DQEJDjETMBEwDwYDKgMEAQH/BAV2YWx1ZTAN
BgkqhkiG9w0BAQUFAAOCAQEALHAPptANcCSolK1LHVBGGXzAqPsBhDs7frBva9mG
gaPUA+nXDPb/xkMAiFl7vI9tPUZNoQtAun4TTk8dAjXkWzCgqPxNSaUbERlXJVhX
AwlVVstQlFT5FaPeq5YNuJidD8cW4dYLO3qiUwfSPPeJYmakNDnJAzUrpSdplH1W
3HKMvDozFYb4wxm7wh1RPqkcXIt6YxgbeFf0FL45kDjRto3hRWMe4TJUPlLpXU3V
PGWxIeMAiPQo9zT0rAhUWU17tfSE0GbfmBCjOL0s4vqHfD/INual4bkAfcA6QGmy
3/nAr5/jxkimtmkP4p423ejuAqEQHnjmxsO0EiEtcEzAtA==
-----END CERTIFICATE REQUEST-----
