Certificate Request:
    Data:
        Version: 2 (0x2)
        Subject: C=US, ST=Texas, L=Austin, O=PyCA, CN=cryptography.io
        Subject Public Key Info:
            Public Key Algorithm: rsaEncryption
            RSA Public Key: (2048 bit)
                Modulus (2048 bit):
                    00:b6:64:25:bd:fc:ba:bf:7b:ee:da:a6:25:79:75:
                    59:59:cb:bc:da:eb:22:66:97:93:4d:f0:67:39:45:
                    01:5c:58:0a:17:88:e4:05:14:c8:3f:33:39:5f:a0:
                    ca:fc:dd:28:3e:b1:d1:0d:87:c1:65:22:21:d3:4a:
                    5c:f0:b6:4f:49:83:90:b1:88:47:b5:7f:7e:4f:34:
                    ae:51:a5:ee:fb:92:68:2d:0f:83:86:cb:8e:e7:1d:
                    ba:f4:6a:f2:ab:81:aa:fc:a4:05:fd:fd:07:88:59:
                    6a:b7:c7:f5:df:92:e6:fd:ec:e7:a7:6f:ac:02:95:
                    b7:3f:01:39:82:8e:94:84:18:cf:07:1b:25:5e:94:
                    56:ec:2e:b7:37:71:ba:09:d2:ef:a3:46:ec:38:34:
                    1d:0f:f8:d1:1f:4f:11:bd:03:9e:c9:46:65:f7:6d:
                    80:2d:32:5e:44:6f:e3:21:ec:c2:76:32:62:c2:9e:
                    47:03:27:8b:ba:49:01:2b:61:1f:6d:7b:3c:05:11:
                    84:bd:a8:bd:44:e2:30:1e:c2:19:fc:9c:60:79:29:
                    b9:62:92:97:94:d2:f7:30:84:b6:51:af:f1:9a:61:
                    80:2e:f8:94:22:f7:73:32:20:79:b1:bf:ea:2d:20:
                    20:48:51:3d:f1:51:03:b1:02:90:74:46:cf:3b:4e:
                    f8:4b
                Exponent: 65537 (0x10001)
        Attributes:
        Requested Extensions:
            1.2.3.4: 
                value
    Signature Algorithm: sha1WithRSAEncryption
        16:5f:86:90:13:fd:63:e6:c9:ca:74:68:b4:6e:e6:c5:c3:46:
        c1:26:bc:64:2b:fc:ef:be:ab:eb:8b:a9:de:8d:4e:a8:f9:f0:
        3e:b0:0b:8c:e4:f8:0b:28:5b:13:0c:46:f8:3b:55:cb:cc:cb:
        ed:6a:4f:16:3a:4b:e9:65:2d:3c:1a:a5:1f:a8:07:ab:22:ee:
        91:60:f1:06:76:0c:6e:8f:7b:25:36:4b:d6:60:04:77:e6:35:
        10:4f:eb:fc:2a:c3:71:e5:cb:9f:94:bd:6c:44:08:79:fb:b2:
        a0:f5:f2:c0:79:b0:c4:22:ec:81:29:b3:97:e5:2f:1f:47:c5:
        1a:3f:be:50:c8:f4:29:9a:94:1d:19:a9:e2:d6:06:ca:07:43:
        6c:f1:e4:7e:fb:b8:70:0c:5b:41:c4:10:84:29:39:49:17:09:
        d1:21:89:d7:c8:e5:6c:48:66:98:ac:8b:33:ab:da:1f:51:a9:
        2f:4c:39:6d:48:d9:7b:34:7f:b5:1e:9e:b8:87:8b:21:13:41:
        d4:53:64:c1:16:e0:a8:c1:6f:dc:be:8f:67:ad:e6:30:79:af:
        bf:7e:ff:64:99:50:d8:4c:58:66:9c:da:d1:53:06:2e:d3:82:
        e3:2d:b3:65:71:6e:6a:67:cf:e1:96:4f:f7:ac:0b:2e:6e:28:
        a4:df:f5:e6
-----BEGIN CERTIFICATE REQUEST-----
MIICuzCCAaMCAQIwVzELMAkGA1UEBhMCVVMxDjAMBgNVBAgMBVRleGFzMQ8wDQYD
VQQHDAZBdXN0aW4xDTALBgNVBAoMBFB5Q0ExGDAWBgNVBAMMD2NyeXB0b2dyYXBo
eS5pbzCCASIwDQYJKoZIhvcNAQEBBQADggEPADCCAQoCggEBALZkJb38ur977tqm
JXl1WVnLvNrrImaXk03wZzlFAVxYCheI5AUUyD8zOV+gyvzdKD6x0Q2HwWUiIdNK
XPC2T0mDkLGIR7V/fk80rlGl7vuSaC0Pg4bLjucduvRq8quBqvykBf39B4hZarfH
9d+S5v3s56dvrAKVtz8BOYKOlIQYzwcbJV6UVuwutzdxugnS76NG7Dg0HQ/40R9P
Eb0DnslGZfdtgC0yXkRv4yHswnYyYsKeRwMni7pJASthH217PAURhL2ovUTiMB7C
GfycYHkpuWKSl5TS9zCEtlGv8ZphgC74lCL3czIgebG/6i0gIEhRPfFRA7ECkHRG
zztO+EsCAwEAAaAfMB0GCSqGSIb3DQEJDjEQMA4wDAYDKgMEBAV2YWx1ZTANBgkq
hkiG9w0BAQUFAAOCAQEAFl+GkBP9Y+bJynRotG7mxcNGwSa8ZCv8776r64up3o1O
qPnwPrALjOT4CyhbEwxG+DtVy8zL7WpPFjpL6WUtPBqlH6gHqyLukWDxBnYMbo97
JTZL1mAEd+Y1EE/r/CrDceXLn5S9bEQIefuyoPXywHmwxCLsgSmzl+UvH0fFGj++
UMj0KZqUHRmp4tYGygdDbPHkfvu4cAxbQcQQhCk5SRcJ0SGJ18jlbEhmmKyLM6va
H1GpL0w5bUjZezR/tR6euIeLIRNB1FNkwRbgqMFv3L6PZ63mMHmvv37/ZJlQ2ExY
Zpza0VMGLtOC4y2zZXFuamfP4ZZP96wLLm4opN/15g==
-----END CERTIFICATE REQUEST-----
