 zlibwapi

 Timestamp is 6050d818 (Tue Mar 16 10:08:56 2021)

 Preferred load address is 0000000180000000

 Start         Length     Name                   Class
 0001:00000000 00025970H .text$mn                CODE
 0001:00025970 00000012H .text$mn$00             CODE
 0001:00025982 000000a1H .text$x                 CODE
 0002:00000000 000002d8H .idata$5                DATA
 0002:000002d8 00000010H .00cfg                  DATA
 0002:000002e8 00000008H .CRT$XCA                DATA
 0002:000002f0 00000008H .CRT$XCZ                DATA
 0002:000002f8 00000008H .CRT$XIA                DATA
 0002:00000300 00000008H .CRT$XIZ                DATA
 0002:00000308 00000008H .CRT$XPA                DATA
 0002:00000310 00000008H .CRT$XPZ                DATA
 0002:00000318 00000008H .CRT$XTA                DATA
 0002:00000320 00000010H .CRT$XTZ                DATA
 0002:00000328 00000000H .gfids$y                DATA
 0002:00000330 00007118H .rdata                  DATA
 0002:00007448 000002d8H .rdata$zzzdbg           DATA
 0002:00007720 00000008H .rtc$IAA                DATA
 0002:00007728 00000008H .rtc$IZZ                DATA
 0002:00007730 00000008H .rtc$TAA                DATA
 0002:00007738 00000008H .rtc$TZZ                DATA
 0002:00007740 00000ca0H .xdata                  DATA
 0002:000083e0 00000cfcH .edata                  DATA
 0002:000090dc 000000b4H .idata$2                DATA
 0002:00009190 00000018H .idata$3                DATA
 0002:000091a8 000002d8H .idata$4                DATA
 0002:00009480 0000066cH .idata$6                DATA
 0003:00000000 00000060H .data                   DATA
 0003:00000060 00000640H .bss                    DATA
 0004:00000000 00000f84H .pdata                  DATA
 0005:00000000 00000112H .msvcjmc                DATA
 0006:00000000 00000060H .rsrc$01                DATA
 0006:00000060 00000338H .rsrc$02                DATA

  Address         Publics by Value              Rva+Base               Lib:Object

 0000:00000000       __hybrid_code_map          0000000000000000     <absolute>
 0000:00000000       __guard_longjmp_count      0000000000000000     <absolute>
 0000:00000000       __AbsoluteZero             0000000000000000     <absolute>
 0000:00000000       __dynamic_value_reloc_table 0000000000000000     <absolute>
 0000:00000000       __guard_longjmp_table      0000000000000000     <absolute>
 0000:00000000       __enclave_config           0000000000000000     <absolute>
 0000:00000000       __guard_fids_count         0000000000000000     <absolute>
 0000:00000000       __guard_iat_table          0000000000000000     <absolute>
 0000:00000000       __volatile_metadata        0000000000000000     <absolute>
 0000:00000000       __hybrid_code_map_count    0000000000000000     <absolute>
 0000:00000000       __hybrid_auxiliary_iat     0000000000000000     <absolute>
 0000:00000000       ___safe_se_handler_count   0000000000000000     <absolute>
 0000:00000000       __guard_fids_table         0000000000000000     <absolute>
 0000:00000000       __guard_iat_count          0000000000000000     <absolute>
 0000:00000000       ___safe_se_handler_table   0000000000000000     <absolute>
 0000:00000100       __guard_flags              0000010000000000     <absolute>
 0000:00000000       __ImageBase                8000000000000001     <linker-defined>
 0001:00000000       adler32_z                  8000100000000001 f   adler32.obj
 0001:00000870       adler32                    8000187000000001 f   adler32.obj
 0001:00000a10       adler32_combine            80001a1000000001 f   adler32.obj
 0001:00000a60       compress2                  80001a6000000001 f   compress.obj
 0001:00000ca0       compress                   80001ca000000001 f   compress.obj
 0001:00000d00       compressBound              80001d0000000001 f   compress.obj
 0001:00000d60       get_crc_table              80001d6000000001 f   crc32.obj
 0001:00000d90       crc32_z                    80001d9000000001 f   crc32.obj
 0001:00001120       crc32                      8000212000000001 f   crc32.obj
 0001:00002550       crc32_combine              8000355000000001 f   crc32.obj
 0001:000026e0       deflateInit_               800036e000000001 f   deflate.obj
 0001:00002760       deflateInit2_              8000376000000001 f   deflate.obj
 0001:00002d10       deflateSetDictionary       80003d1000000001 f   deflate.obj
 0001:000030a0       deflateGetDictionary       800040a000000001 f   deflate.obj
 0001:000031a0       deflateResetKeep           800041a000000001 f   deflate.obj
 0001:00003300       deflateReset               8000430000000001 f   deflate.obj
 0001:00003360       deflateSetHeader           8000436000000001 f   deflate.obj
 0001:000033d0       deflatePending             800043d000000001 f   deflate.obj
 0001:00003460       deflatePrime               8000446000000001 f   deflate.obj
 0001:000035b0       deflateParams              800045b000000001 f   deflate.obj
 0001:00003810       deflateTune                8000481000000001 f   deflate.obj
 0001:000038b0       deflateBound               800048b000000001 f   deflate.obj
 0001:00003ca0       deflate                    80004ca000000001 f   deflate.obj
 0001:000051f0       deflateEnd                 800061f000000001 f   deflate.obj
 0001:00005350       deflateCopy                8000635000000001 f   deflate.obj
 0001:00008d10       gzclose                    80009d1000000001 f   gzclose.obj
 0001:00008d90       __local_stdio_printf_options 80009d9000000001 f i gzlib.obj
 0001:00008dc0       vsnprintf                  80009dc000000001 f i gzlib.obj
 0001:00008e60       snprintf                   80009e6000000001 f i gzlib.obj
 0001:00009510       gzopen                     8000a51000000001 f   gzlib.obj
 0001:00009560       gzdopen                    8000a56000000001 f   gzlib.obj
 0001:00009600       gzopen_w                   8000a60000000001 f   gzlib.obj
 0001:00009650       gzbuffer                   8000a65000000001 f   gzlib.obj
 0001:00009710       gzrewind                   8000a71000000001 f   gzlib.obj
 0001:000097c0       gzseek64                   8000a7c000000001 f   gzlib.obj
 0001:00009af0       gzseek                     8000aaf000000001 f   gzlib.obj
 0001:00009b70       gztell64                   8000ab7000000001 f   gzlib.obj
 0001:00009c20       gztell                     8000ac2000000001 f   gzlib.obj
 0001:00009c90       gzoffset64                 8000ac9000000001 f   gzlib.obj
 0001:00009d60       gzoffset                   8000ad6000000001 f   gzlib.obj
 0001:00009dd0       gzeof                      8000add000000001 f   gzlib.obj
 0001:00009e60       gzerror                    8000ae6000000001 f   gzlib.obj
 0001:00009f40       gzclearerr                 8000af4000000001 f   gzlib.obj
 0001:00009fe0       gz_error                   8000afe000000001 f   gzlib.obj
 0001:0000ad30       gzread                     8000bd3000000001 f   gzread.obj
 0001:0000ae20       gzfread                    8000be2000000001 f   gzread.obj
 0001:0000af20       gzgetc                     8000bf2000000001 f   gzread.obj
 0001:0000b050       gzgetc_                    8000c05000000001 f   gzread.obj
 0001:0000b090       gzungetc                   8000c09000000001 f   gzread.obj
 0001:0000b300       gzgets                     8000c30000000001 f   gzread.obj
 0001:0000b550       gzdirect                   8000c55000000001 f   gzread.obj
 0001:0000b5d0       gzclose_r                  8000c5d000000001 f   gzread.obj
 0001:0000bfb0       gzwrite                    8000cfb000000001 f   gzwrite.obj
 0001:0000c060       gzfwrite                   8000d06000000001 f   gzwrite.obj
 0001:0000c160       gzputc                     8000d16000000001 f   gzwrite.obj
 0001:0000c310       gzputs                     8000d31000000001 f   gzwrite.obj
 0001:0000c3d0       gzvprintf                  8000d3d000000001 f   gzwrite.obj
 0001:0000c690       gzprintf                   8000d69000000001 f   gzwrite.obj
 0001:0000c720       gzflush                    8000d72000000001 f   gzwrite.obj
 0001:0000c800       gzsetparams                8000d80000000001 f   gzwrite.obj
 0001:0000c950       gzclose_w                  8000d95000000001 f   gzwrite.obj
 0001:0000cab0       inflateBackInit_           8000dab000000001 f   infback.obj
 0001:0000ccc0       inflateBack                8000dcc000000001 f   infback.obj
 0001:0000eab0       inflateBackEnd             8000fab000000001 f   infback.obj
 0001:0000eb30       inflate_fast               8000fb3000000001 f   inffas8664.obj
 0001:0000eff0       inflateResetKeep           8000fff000000001 f   inflate.obj
 0001:0000f150       inflateReset               8001015000000001 f   inflate.obj
 0001:0000f1e0       inflateReset2              800101e000000001 f   inflate.obj
 0001:0000f300       inflateInit2_              8001030000000001 f   inflate.obj
 0001:0000f490       inflateInit_               8001049000000001 f   inflate.obj
 0001:0000f4f0       inflatePrime               800104f000000001 f   inflate.obj
 0001:0000f8d0       inflate                    800108d000000001 f   inflate.obj
 0001:00012890       inflateEnd                 8001389000000001 f   inflate.obj
 0001:00012940       inflateGetDictionary       8001394000000001 f   inflate.obj
 0001:00012a40       inflateSetDictionary       80013a4000000001 f   inflate.obj
 0001:00012b60       inflateGetHeader           80013b6000000001 f   inflate.obj
 0001:00012cd0       inflateSync                80013cd000000001 f   inflate.obj
 0001:00012f10       inflateSyncPoint           80013f1000000001 f   inflate.obj
 0001:00012fa0       inflateCopy                80013fa000000001 f   inflate.obj
 0001:00013220       inflateUndermine           8001422000000001 f   inflate.obj
 0001:00013290       inflateValidate            8001429000000001 f   inflate.obj
 0001:00013320       inflateMark                8001432000000001 f   inflate.obj
 0001:000133e0       inflateCodesUsed           800143e000000001 f   inflate.obj
 0001:00013460       inflate_table              8001446000000001 f   inftrees.obj
 0001:00013d20       call_zopen64               80014d2000000001 f   ioapi.obj
 0001:00013da0       call_zseek64               80014da000000001 f   ioapi.obj
 0001:00013e50       call_ztell64               80014e5000000001 f   ioapi.obj
 0001:00013ee0       fill_zlib_filefunc64_32_def_from_filefunc32 80014ee000000001 f   ioapi.obj
 0001:00014500       fill_fopen64_filefunc      8001550000000001 f   ioapi.obj
 0001:00014750       win32_open64_file_func     8001575000000001 f   iowin32.obj
 0001:00014850       win32_open64_file_funcA    8001585000000001 f   iowin32.obj
 0001:00014950       win32_open64_file_funcW    8001595000000001 f   iowin32.obj
 0001:00014a50       win32_open_file_func       80015a5000000001 f   iowin32.obj
 0001:00014b50       win32_read_file_func       80015b5000000001 f   iowin32.obj
 0001:00014c30       win32_write_file_func      80015c3000000001 f   iowin32.obj
 0001:00014de0       win32_tell_file_func       80015de000000001 f   iowin32.obj
 0001:00014eb0       win32_tell64_file_func     80015eb000000001 f   iowin32.obj
 0001:00014f80       win32_seek_file_func       80015f8000000001 f   iowin32.obj
 0001:000150b0       win32_seek64_file_func     800160b000000001 f   iowin32.obj
 0001:000151e0       win32_close_file_func      800161e000000001 f   iowin32.obj
 0001:00015260       win32_error_file_func      8001626000000001 f   iowin32.obj
 0001:000152c0       fill_win32_filefunc        800162c000000001 f   iowin32.obj
 0001:00015370       fill_win32_filefunc64      8001637000000001 f   iowin32.obj
 0001:00015420       fill_win32_filefunc64A     8001642000000001 f   iowin32.obj
 0001:000154d0       fill_win32_filefunc64W     800164d000000001 f   iowin32.obj
 0001:000155b0       _tr_init                   800165b000000001 f   trees.obj
 0001:00017dc0       _tr_stored_block           80018dc000000001 f   trees.obj
 0001:00018060       _tr_flush_bits             8001906000000001 f   trees.obj
 0001:000180a0       _tr_align                  800190a000000001 f   trees.obj
 0001:000183c0       _tr_flush_block            800193c000000001 f   trees.obj
 0001:00019840       uncompress2                8001a84000000001 f   uncompr.obj
 0001:00019b40       uncompress                 8001ab4000000001 f   uncompr.obj
 0001:0001a1a0       unzStringFileNameCompare   8001b1a000000001 f   unzip.obj
 0001:0001af40       unzOpen2                   8001bf4000000001 f   unzip.obj
 0001:0001afe0       unzOpen2_64                8001bfe000000001 f   unzip.obj
 0001:0001b0a0       unzOpen                    8001c0a000000001 f   unzip.obj
 0001:0001b0e0       unzOpen64                  8001c0e000000001 f   unzip.obj
 0001:0001b130       unzClose                   8001c13000000001 f   unzip.obj
 0001:0001b1d0       unzGetGlobalInfo64         8001c1d000000001 f   unzip.obj
 0001:0001b240       unzGetGlobalInfo           8001c24000000001 f   unzip.obj
 0001:0001bd20       unzGetCurrentFileInfo64    8001cd2000000001 f   unzip.obj
 0001:0001bdb0       unzGetCurrentFileInfo      8001cdb000000001 f   unzip.obj
 0001:0001bfa0       unzGoToFirstFile           8001cfa000000001 f   unzip.obj
 0001:0001c0b0       unzGoToNextFile            8001d0b000000001 f   unzip.obj
 0001:0001c230       unzLocateFile              8001d23000000001 f   unzip.obj
 0001:0001c440       unzGetFilePos64            8001d44000000001 f   unzip.obj
 0001:0001c4e0       unzGetFilePos              8001d4e000000001 f   unzip.obj
 0001:0001c560       unzGoToFilePos64           8001d56000000001 f   unzip.obj
 0001:0001c670       unzGoToFilePos             8001d67000000001 f   unzip.obj
 0001:0001cbb0       unzOpenCurrentFile3        8001dbb000000001 f   unzip.obj
 0001:0001d020       unzOpenCurrentFile         8001e02000000001 f   unzip.obj
 0001:0001d070       unzOpenCurrentFilePassword 8001e07000000001 f   unzip.obj
 0001:0001d0d0       unzOpenCurrentFile2        8001e0d000000001 f   unzip.obj
 0001:0001d140       unzGetCurrentFileZStreamPos64 8001e14000000001 f   unzip.obj
 0001:0001d1c0       unzReadCurrentFile         8001e1c000000001 f   unzip.obj
 0001:0001d770       unztell                    8001e77000000001 f   unzip.obj
 0001:0001d7f0       unztell64                  8001e7f000000001 f   unzip.obj
 0001:0001d870       unzeof                     8001e87000000001 f   unzip.obj
 0001:0001d900       unzGetLocalExtrafield      8001e90000000001 f   unzip.obj
 0001:0001da50       unzCloseCurrentFile        8001ea5000000001 f   unzip.obj
 0001:0001db80       unzGetGlobalComment        8001eb8000000001 f   unzip.obj
 0001:0001f310       LoadCentralDirectoryRecord 8002031000000001 f   zip.obj
 0001:0001fb50       zipOpen3                   80020b5000000001 f   zip.obj
 0001:0001fdb0       zipOpen2                   80020db000000001 f   zip.obj
 0001:0001fe70       zipOpen2_64                80020e7000000001 f   zip.obj
 0001:0001ff50       zipOpen                    80020f5000000001 f   zip.obj
 0001:0001ffa0       zipOpen64                  80020fa000000001 f   zip.obj
 0001:0001fff0       Write_LocalFileHeader      80020ff000000001 f   zip.obj
 0001:00020450       zipOpenNewFileInZip4_64    8002145000000001 f   zip.obj
 0001:00020e00       zipOpenNewFileInZip3       80021e0000000001 f   zip.obj
 0001:00020f20       zipOpenNewFileInZip3_64    80021f2000000001 f   zip.obj
 0001:00021040       zipOpenNewFileInZip2       8002204000000001 f   zip.obj
 0001:00021150       zipOpenNewFileInZip2_64    8002215000000001 f   zip.obj
 0001:00021260       zipOpenNewFileInZip64      8002226000000001 f   zip.obj
 0001:00021370       zipOpenNewFileInZip        8002237000000001 f   zip.obj
 0001:00021630       zipWriteInFileInZip        8002263000000001 f   zip.obj
 0001:00021930       zipCloseFileInZipRaw       8002293000000001 f   zip.obj
 0001:00021980       zipCloseFileInZipRaw64     8002298000000001 f   zip.obj
 0001:000221b0       zipCloseFileInZip          800231b000000001 f   zip.obj
 0001:000221f0       Write_Zip64EndOfCentralDirectoryLocator 800231f000000001 f   zip.obj
 0001:00022300       Write_Zip64EndOfCentralDirectoryRecord 8002330000000001 f   zip.obj
 0001:00022530       Write_EndOfCentralDirectoryRecord 8002353000000001 f   zip.obj
 0001:00022790       Write_GlobalComment        8002379000000001 f   zip.obj
 0001:00022860       zipClose                   8002386000000001 f   zip.obj
 0001:00022ad0       zlibVersion                80023ad000000001 f   zutil.obj
 0001:00022b00       zlibCompileFlags           80023b0000000001 f   zutil.obj
 0001:00022c70       zError                     80023c7000000001 f   zutil.obj
 0001:00022cc0       zcalloc                    80023cc000000001 f   zutil.obj
 0001:00022d10       zcfree                     80023d1000000001 f   zutil.obj
 0001:00022d50       longest_match              80023d5000000001 f   gvmat64.obj
 0001:00023028       match_init                 8002402800000001 f   gvmat64.obj
 0001:00023030       inffas8664fnc              8002403000000001 f   inffasx64.obj
 0001:00023347       ReadFile                   8002434700000001 f   kernel32:KERNEL32.dll
 0001:0002334d       WriteFile                  8002434d00000001 f   kernel32:KERNEL32.dll
 0001:00023353       SetFilePointer             8002435300000001 f   kernel32:KERNEL32.dll
 0001:00023359       CreateFileW                8002435900000001 f   kernel32:KERNEL32.dll
 0001:0002335f       GetLastError               8002435f00000001 f   kernel32:KERNEL32.dll
 0001:00023365       CreateFileA                8002436500000001 f   kernel32:KERNEL32.dll
 0001:0002336b       CloseHandle                8002436b00000001 f   kernel32:KERNEL32.dll
 0001:000236b0       _CRT_INIT                  800246b000000001 f   MSVCRT:dll_dllmain.obj
 0001:000236b8       _DllMainCRTStartup         800246b800000001 f   MSVCRT:dll_dllmain.obj
 0001:00023764       __security_init_cookie     8002476400000001 f   MSVCRT:gs_support.obj
 0001:00023810       DllMain                    8002481000000001 f   MSVCRT:dll_dllmain_stub.obj
 0001:00023834       ?__scrt_initialize_type_info@@YAXXZ 8002483400000001 f   MSVCRT:tncleanup.obj
 0001:00023844       ?__scrt_uninitialize_type_info@@YAXXZ 8002484400000001 f   MSVCRT:tncleanup.obj
 0001:00023850       __local_stdio_scanf_options 8002485000000001 f i MSVCRT:default_local_stdio_options.obj
 0001:00023858       __scrt_initialize_default_local_stdio_options 8002485800000001 f   MSVCRT:default_local_stdio_options.obj
 0001:00023874       ??$__crt_fast_decode_pointer@PEAP6AXXZ@@YAPEAP6AXXZQEAP6AXXZ@Z 8002487400000001 f i MSVCRT:utility.obj
 0001:0002388c       ??$__crt_fast_encode_pointer@PEAP6AXXZ@@YAPEAP6AXXZQEAP6AXXZ@Z 8002488c00000001 f i MSVCRT:utility.obj
 0001:000238ac       ?__crt_rotate_pointer_value@@YA_K_KH@Z 800248ac00000001 f i MSVCRT:utility.obj
 0001:000238b8       ?configure_argv@__scrt_narrow_argv_policy@@SAHXZ 800248b800000001 f i MSVCRT:utility.obj
 0001:00023918       ?initialize_environment@__scrt_narrow_environment_policy@@SAHXZ 8002491800000001 f i MSVCRT:utility.obj
 0001:00023950       NtCurrentTeb               8002495000000001 f i MSVCRT:utility.obj
 0001:0002395c       __scrt_acquire_startup_lock 8002495c00000001 f   MSVCRT:utility.obj
 0001:00023998       __scrt_dllmain_after_initialize_c 8002499800000001 f   MSVCRT:utility.obj
 0001:000239cc       __scrt_dllmain_before_initialize_c 800249cc00000001 f   MSVCRT:utility.obj
 0001:000239e4       __scrt_dllmain_crt_thread_attach 800249e400000001 f   MSVCRT:utility.obj
 0001:00023a0c       __scrt_dllmain_crt_thread_detach 80024a0c00000001 f   MSVCRT:utility.obj
 0001:00023a24       __scrt_dllmain_exception_filter 80024a2400000001 f   MSVCRT:utility.obj
 0001:00023a84       __scrt_dllmain_uninitialize_c 80024a8400000001 f   MSVCRT:utility.obj
 0001:00023ab4       __scrt_dllmain_uninitialize_critical 80024ab400000001 f   MSVCRT:utility.obj
 0001:00023ac8       __scrt_initialize_crt      80024ac800000001 f   MSVCRT:utility.obj
 0001:00023b14       __scrt_initialize_onexit_tables 80024b1400000001 f   MSVCRT:utility.obj
 0001:00023bc4       __scrt_is_nonwritable_in_current_image 80024bc400000001 f   MSVCRT:utility.obj
 0001:00023c5c       __scrt_release_startup_lock 80024c5c00000001 f   MSVCRT:utility.obj
 0001:00023c80       __scrt_uninitialize_crt    80024c8000000001 f   MSVCRT:utility.obj
 0001:00023cac       _onexit                    80024cac00000001 f   MSVCRT:utility.obj
 0001:00023cfc       at_quick_exit              80024cfc00000001 f   MSVCRT:utility.obj
 0001:00023d34       atexit                     80024d3400000001 f   MSVCRT:utility.obj
 0001:00023d4c       __scrt_get_dyn_tls_init_callback 80024d4c00000001 f   MSVCRT:dyn_tls_init.obj
 0001:00023d54       __crt_debugger_hook        80024d5400000001 f   MSVCRT:utility_desktop.obj
 0001:00023d5c       __scrt_fastfail            80024d5c00000001 f   MSVCRT:utility_desktop.obj
 0001:00023ea8       __scrt_get_show_window_mode 80024ea800000001 f   MSVCRT:utility_desktop.obj
 0001:00023ee4       __scrt_initialize_mta      80024ee400000001 f   MSVCRT:utility_desktop.obj
 0001:00023eec       __scrt_initialize_winrt    80024eec00000001 f   MSVCRT:utility_desktop.obj
 0001:00023ef0       __scrt_is_managed_app      80024ef000000001 f   MSVCRT:utility_desktop.obj
 0001:00023f44       __scrt_set_unhandled_exception_filter 80024f4400000001 f   MSVCRT:utility_desktop.obj
 0001:00023f54       __scrt_exe_initialize_mta  80024f5400000001 f   MSVCRT:utility_desktop.obj
 0001:00023f54       __scrt_stub_for_initialize_mta 80024f5400000001 f   MSVCRT:utility_desktop.obj
 0001:00023f58       __scrt_unhandled_exception_filter 80024f5800000001 f   MSVCRT:utility_desktop.obj
 0001:00023f90       _RTC_Initialize            80024f9000000001 f   MSVCRT:initsect.obj
 0001:00023fcc       _RTC_Terminate             80024fcc00000001 f   MSVCRT:initsect.obj
 0001:00024008       _guard_check_icall_nop     8002500800000001 f i MSVCRT:guard_support.obj
 0001:0002400c       ReadNoFence64              8002500c00000001 f i MSVCRT:guard_support.obj
 0001:00024010       ReadPointerNoFence         8002501000000001 f i MSVCRT:guard_support.obj
 0001:00024014       _guard_icall_checks_enforced 8002501400000001 f i MSVCRT:guard_support.obj
 0001:0002402c       _guard_rf_checks_enforced  8002502c00000001 f i MSVCRT:guard_support.obj
 0001:00024030       __isa_available_init       8002503000000001 f   MSVCRT:cpu_disp.obj
 0001:000241ac       _get_startup_argv_mode     800251ac00000001 f   MSVCRT:argv_mode.obj
 0001:000241b4       __scrt_is_ucrt_dll_in_use  800251b400000001 f   MSVCRT:ucrt_detection.obj
 0001:000241c0       memcpy                     800251c000000001 f   vcruntime:VCRUNTIME140.dll
 0001:000241c6       memset                     800251c600000001 f   vcruntime:VCRUNTIME140.dll
 0001:000241cc       memchr                     800251cc00000001 f   vcruntime:VCRUNTIME140.dll
 0001:000241d2       __C_specific_handler       800251d200000001 f   vcruntime:VCRUNTIME140.dll
 0001:000241d8       __std_type_info_destroy_list 800251d800000001 f   vcruntime:VCRUNTIME140.dll
 0001:000241de       _lseeki64                  800251de00000001 f   ucrt:api-ms-win-crt-stdio-l1-1-0.dll
 0001:000241e4       _wopen                     800251e400000001 f   ucrt:api-ms-win-crt-stdio-l1-1-0.dll
 0001:000241ea       _open                      800251ea00000001 f   ucrt:api-ms-win-crt-stdio-l1-1-0.dll
 0001:000241f0       wcstombs                   800251f000000001 f   ucrt:api-ms-win-crt-convert-l1-1-0.dll
 0001:000241f6       strlen                     800251f600000001 f   ucrt:api-ms-win-crt-string-l1-1-0.dll
 0001:000241fc       __stdio_common_vsprintf    800251fc00000001 f   ucrt:api-ms-win-crt-stdio-l1-1-0.dll
 0001:00024202       free                       8002520200000001 f   ucrt:api-ms-win-crt-heap-l1-1-0.dll
 0001:00024208       malloc                     8002520800000001 f   ucrt:api-ms-win-crt-heap-l1-1-0.dll
 0001:0002420e       _read                      8002520e00000001 f   ucrt:api-ms-win-crt-stdio-l1-1-0.dll
 0001:00024214       _close                     8002521400000001 f   ucrt:api-ms-win-crt-stdio-l1-1-0.dll
 0001:0002421a       _errno                     8002521a00000001 f   ucrt:api-ms-win-crt-runtime-l1-1-0.dll
 0001:00024220       strerror                   8002522000000001 f   ucrt:api-ms-win-crt-runtime-l1-1-0.dll
 0001:00024226       _write                     8002522600000001 f   ucrt:api-ms-win-crt-stdio-l1-1-0.dll
 0001:0002422c       ftell                      8002522c00000001 f   ucrt:api-ms-win-crt-stdio-l1-1-0.dll
 0001:00024232       ferror                     8002523200000001 f   ucrt:api-ms-win-crt-stdio-l1-1-0.dll
 0001:00024238       fopen                      8002523800000001 f   ucrt:api-ms-win-crt-stdio-l1-1-0.dll
 0001:0002423e       fclose                     8002523e00000001 f   ucrt:api-ms-win-crt-stdio-l1-1-0.dll
 0001:00024244       fseek                      8002524400000001 f   ucrt:api-ms-win-crt-stdio-l1-1-0.dll
 0001:0002424a       fwrite                     8002524a00000001 f   ucrt:api-ms-win-crt-stdio-l1-1-0.dll
 0001:00024250       _ftelli64                  8002525000000001 f   ucrt:api-ms-win-crt-stdio-l1-1-0.dll
 0001:00024256       fread                      8002525600000001 f   ucrt:api-ms-win-crt-stdio-l1-1-0.dll
 0001:0002425c       _fseeki64                  8002525c00000001 f   ucrt:api-ms-win-crt-stdio-l1-1-0.dll
 0001:00024262       strcmp                     8002526200000001 f   ucrt:api-ms-win-crt-string-l1-1-0.dll
 0001:00024268       srand                      8002526800000001 f   ucrt:api-ms-win-crt-utility-l1-1-0.dll
 0001:0002426e       rand                       8002526e00000001 f   ucrt:api-ms-win-crt-utility-l1-1-0.dll
 0001:00024274       _time64                    8002527400000001 f   ucrt:api-ms-win-crt-time-l1-1-0.dll
 0001:0002427a       _initterm                  8002527a00000001 f   ucrt:api-ms-win-crt-runtime-l1-1-0.dll
 0001:00024280       _initterm_e                8002528000000001 f   ucrt:api-ms-win-crt-runtime-l1-1-0.dll
 0001:00024286       _seh_filter_dll            8002528600000001 f   ucrt:api-ms-win-crt-runtime-l1-1-0.dll
 0001:0002428c       _configure_narrow_argv     8002528c00000001 f   ucrt:api-ms-win-crt-runtime-l1-1-0.dll
 0001:00024292       _initialize_narrow_environment 8002529200000001 f   ucrt:api-ms-win-crt-runtime-l1-1-0.dll
 0001:00024298       _initialize_onexit_table   8002529800000001 f   ucrt:api-ms-win-crt-runtime-l1-1-0.dll
 0001:0002429e       _register_onexit_function  8002529e00000001 f   ucrt:api-ms-win-crt-runtime-l1-1-0.dll
 0001:000242a4       _execute_onexit_table      800252a400000001 f   ucrt:api-ms-win-crt-runtime-l1-1-0.dll
 0001:000242aa       _crt_atexit                800252aa00000001 f   ucrt:api-ms-win-crt-runtime-l1-1-0.dll
 0001:000242b0       _crt_at_quick_exit         800252b000000001 f   ucrt:api-ms-win-crt-runtime-l1-1-0.dll
 0001:000242b6       _cexit                     800252b600000001 f   ucrt:api-ms-win-crt-runtime-l1-1-0.dll
 0001:000242bc       terminate                  800252bc00000001 f   ucrt:api-ms-win-crt-runtime-l1-1-0.dll
 0001:000242c2       QueryPerformanceCounter    800252c200000001 f   kernel32:KERNEL32.dll
 0001:000242c8       GetCurrentProcessId        800252c800000001 f   kernel32:KERNEL32.dll
 0001:000242ce       GetCurrentThreadId         800252ce00000001 f   kernel32:KERNEL32.dll
 0001:000242d4       GetSystemTimeAsFileTime    800252d400000001 f   kernel32:KERNEL32.dll
 0001:000242da       DisableThreadLibraryCalls  800252da00000001 f   kernel32:KERNEL32.dll
 0001:000242e0       InitializeSListHead        800252e000000001 f   kernel32:KERNEL32.dll
 0001:000242e6       RtlCaptureContext          800252e600000001 f   kernel32:KERNEL32.dll
 0001:000242ec       RtlLookupFunctionEntry     800252ec00000001 f   kernel32:KERNEL32.dll
 0001:000242f2       RtlVirtualUnwind           800252f200000001 f   kernel32:KERNEL32.dll
 0001:000242f8       IsDebuggerPresent          800252f800000001 f   kernel32:KERNEL32.dll
 0001:000242fe       UnhandledExceptionFilter   800252fe00000001 f   kernel32:KERNEL32.dll
 0001:00024304       SetUnhandledExceptionFilter 8002530400000001 f   kernel32:KERNEL32.dll
 0001:0002430a       GetStartupInfoW            8002530a00000001 f   kernel32:KERNEL32.dll
 0001:00024310       IsProcessorFeaturePresent  8002531000000001 f   kernel32:KERNEL32.dll
 0001:00024316       GetModuleHandleW           8002531600000001 f   kernel32:KERNEL32.dll
 0001:0002431c       __scrt_stub_for_acrt_initialize 8002531c00000001 f   MSVCRT:ucrt_stubs.obj
 0001:0002431c       __vcrt_initialize          8002531c00000001 f   MSVCRT:ucrt_stubs.obj
 0001:0002431c       __acrt_initialize          8002531c00000001 f   MSVCRT:ucrt_stubs.obj
 0001:00024320       __scrt_stub_for_acrt_thread_attach 8002532000000001 f   MSVCRT:ucrt_stubs.obj
 0001:00024320       __vcrt_thread_attach       8002532000000001 f   MSVCRT:ucrt_stubs.obj
 0001:00024320       __acrt_thread_attach       8002532000000001 f   MSVCRT:ucrt_stubs.obj
 0001:00024324       __acrt_thread_detach       8002532400000001 f   MSVCRT:ucrt_stubs.obj
 0001:00024324       __vcrt_thread_detach       8002532400000001 f   MSVCRT:ucrt_stubs.obj
 0001:00024324       __scrt_stub_for_acrt_thread_detach 8002532400000001 f   MSVCRT:ucrt_stubs.obj
 0001:00024328       __vcrt_uninitialize        8002532800000001 f   MSVCRT:ucrt_stubs.obj
 0001:00024328       __scrt_stub_for_acrt_uninitialize 8002532800000001 f   MSVCRT:ucrt_stubs.obj
 0001:00024328       __acrt_uninitialize        8002532800000001 f   MSVCRT:ucrt_stubs.obj
 0001:0002432c       __acrt_uninitialize_critical 8002532c00000001 f   MSVCRT:ucrt_stubs.obj
 0001:0002432c       __vcrt_uninitialize_critical 8002532c00000001 f   MSVCRT:ucrt_stubs.obj
 0001:0002432c       __scrt_stub_for_acrt_uninitialize_critical 8002532c00000001 f   MSVCRT:ucrt_stubs.obj
 0001:00024330       _is_c_termination_complete 8002533000000001 f   MSVCRT:ucrt_stubs.obj
 0001:00024330       __scrt_stub_for_is_c_termination_complete 8002533000000001 f   MSVCRT:ucrt_stubs.obj
 0001:00024340       __JustMyCode_Default       8002534000000001 f i adler32.obj
 0001:00024344       _RTC_AllocaHelper          8002534400000001 f   MSVCRT:stack.obj
 0001:0002437c       _RTC_CheckStackVars        8002537c00000001 f   MSVCRT:stack.obj
 0001:000243f0       _RTC_CheckStackVars2       800253f000000001 f   MSVCRT:stack.obj
 0001:000244d8       __CheckForDebuggerJustMyCode 800254d800000001 f   MSVCRT:debugger_jmc.obj
 0001:00024530       _alloca_probe              8002553000000001 f   MSVCRT:chkstk.obj
 0001:00024530       __chkstk                   8002553000000001 f   MSVCRT:chkstk.obj
 0001:00024600       ?_RTC_AllocaFailure@@YAXPEAXPEAU_RTC_ALLOCA_NODE@@H@Z 8002560000000001 f   MSVCRT:error.obj
 0001:000247b0       ?_RTC_Failure@@YAXPEAXH@Z  800257b000000001 f   MSVCRT:error.obj
 0001:000247fc       ?_RTC_StackFailure@@YAXPEAXPEBD@Z 800257fc00000001 f   MSVCRT:error.obj
 0001:00024c3c       _RTC_UninitUse             80025c3c00000001 f   MSVCRT:error.obj
 0001:00024d0c       _vsprintf_s_l              80025d0c00000001 f i MSVCRT:error.obj
 0001:00024d70       sprintf_s                  80025d7000000001 f i MSVCRT:error.obj
 0001:00024dc4       ?_RTC_GetErrorFunc@@YAP6AHHPEBDH00ZZPEBX@Z 80025dc400000001 f   MSVCRT:userapi.obj
 0001:00024dcc       ?_RTC_GetErrorFuncW@@YAP6AHHPEB_WH00ZZPEBX@Z 80025dcc00000001 f   MSVCRT:userapi.obj
 0001:00024dd4       _RTC_GetErrDesc            80025dd400000001 f   MSVCRT:userapi.obj
 0001:00024dec       _RTC_NumErrors             80025dec00000001 f   MSVCRT:userapi.obj
 0001:00024df4       _RTC_SetErrorFunc          80025df400000001 f   MSVCRT:userapi.obj
 0001:00024e0c       _RTC_SetErrorFuncW         80025e0c00000001 f   MSVCRT:userapi.obj
 0001:00024e24       _RTC_SetErrorType          80025e2400000001 f   MSVCRT:userapi.obj
 0001:000250e8       ?_RTC_GetSrcLine@@YAHPEAEPEA_WKPEAH1K@Z 800260e800000001 f   MSVCRT:pdblkup.obj
 0001:0002549c       __GSHandlerCheck           8002649c00000001 f   MSVCRT:gshandler.obj
 0001:000254bc       __GSHandlerCheckCommon     800264bc00000001 f   MSVCRT:gshandler.obj
 0001:00025530       __security_check_cookie    8002653000000001 f   MSVCRT:amdsecgs.obj
 0001:00025554       __raise_securityfailure    8002655400000001 f   MSVCRT:gs_report.obj
 0001:00025588       __report_gsfailure         8002658800000001 f   MSVCRT:gs_report.obj
 0001:0002565c       __report_rangecheckfailure 8002665c00000001 f   MSVCRT:gs_report.obj
 0001:00025670       __report_securityfailure   8002667000000001 f   MSVCRT:gs_report.obj
 0001:0002570c       __report_securityfailureEx 8002670c00000001 f   MSVCRT:gs_report.obj
 0001:000258fd       __C_specific_handler_noexcept 800268fd00000001 f   vcruntime:VCRUNTIME140.dll
 0001:00025903       __vcrt_GetModuleFileNameW  8002690300000001 f   vcruntime:VCRUNTIME140.dll
 0001:00025909       __vcrt_LoadLibraryExW      8002690900000001 f   vcruntime:VCRUNTIME140.dll
 0001:0002590f       strcpy_s                   8002690f00000001 f   ucrt:api-ms-win-crt-string-l1-1-0.dll
 0001:00025915       strcat_s                   8002691500000001 f   ucrt:api-ms-win-crt-string-l1-1-0.dll
 0001:0002591b       __stdio_common_vsprintf_s  8002691b00000001 f   ucrt:api-ms-win-crt-stdio-l1-1-0.dll
 0001:00025921       RaiseException             8002692100000001 f   kernel32:KERNEL32.dll
 0001:00025927       MultiByteToWideChar        8002692700000001 f   kernel32:KERNEL32.dll
 0001:0002592d       WideCharToMultiByte        8002692d00000001 f   kernel32:KERNEL32.dll
 0001:00025933       HeapAlloc                  8002693300000001 f   kernel32:KERNEL32.dll
 0001:00025939       HeapFree                   8002693900000001 f   kernel32:KERNEL32.dll
 0001:0002593f       GetProcessHeap             8002693f00000001 f   kernel32:KERNEL32.dll
 0001:00025945       VirtualQuery               8002694500000001 f   kernel32:KERNEL32.dll
 0001:0002594b       FreeLibrary                8002694b00000001 f   kernel32:KERNEL32.dll
 0001:00025951       GetProcAddress             8002695100000001 f   kernel32:KERNEL32.dll
 0001:00025957       GetCurrentProcess          8002695700000001 f   kernel32:KERNEL32.dll
 0001:0002595d       TerminateProcess           8002695d00000001 f   kernel32:KERNEL32.dll
 0001:00025980       _guard_dispatch_icall_nop  8002698000000001 f   MSVCRT:guard_dispatch.obj
 0002:00000000       __imp_ReadFile             8002700000000001     kernel32:KERNEL32.dll
 0002:00000008       __imp_WriteFile            8002700800000001     kernel32:KERNEL32.dll
 0002:00000010       __imp_SetFilePointer       8002701000000001     kernel32:KERNEL32.dll
 0002:00000018       __imp_CreateFileW          8002701800000001     kernel32:KERNEL32.dll
 0002:00000020       __imp_GetLastError         8002702000000001     kernel32:KERNEL32.dll
 0002:00000028       __imp_CreateFileA          8002702800000001     kernel32:KERNEL32.dll
 0002:00000030       __imp_CloseHandle          8002703000000001     kernel32:KERNEL32.dll
 0002:00000038       __imp_GetCurrentProcess    8002703800000001     kernel32:KERNEL32.dll
 0002:00000040       __imp_GetProcAddress       8002704000000001     kernel32:KERNEL32.dll
 0002:00000048       __imp_FreeLibrary          8002704800000001     kernel32:KERNEL32.dll
 0002:00000050       __imp_VirtualQuery         8002705000000001     kernel32:KERNEL32.dll
 0002:00000058       __imp_GetProcessHeap       8002705800000001     kernel32:KERNEL32.dll
 0002:00000060       __imp_HeapFree             8002706000000001     kernel32:KERNEL32.dll
 0002:00000068       __imp_HeapAlloc            8002706800000001     kernel32:KERNEL32.dll
 0002:00000070       __imp_WideCharToMultiByte  8002707000000001     kernel32:KERNEL32.dll
 0002:00000078       __imp_MultiByteToWideChar  8002707800000001     kernel32:KERNEL32.dll
 0002:00000080       __imp_RaiseException       8002708000000001     kernel32:KERNEL32.dll
 0002:00000088       __imp_GetModuleHandleW     8002708800000001     kernel32:KERNEL32.dll
 0002:00000090       __imp_IsProcessorFeaturePresent 8002709000000001     kernel32:KERNEL32.dll
 0002:00000098       __imp_GetStartupInfoW      8002709800000001     kernel32:KERNEL32.dll
 0002:000000a0       __imp_SetUnhandledExceptionFilter 800270a000000001     kernel32:KERNEL32.dll
 0002:000000a8       __imp_UnhandledExceptionFilter 800270a800000001     kernel32:KERNEL32.dll
 0002:000000b0       __imp_IsDebuggerPresent    800270b000000001     kernel32:KERNEL32.dll
 0002:000000b8       __imp_RtlVirtualUnwind     800270b800000001     kernel32:KERNEL32.dll
 0002:000000c0       __imp_RtlLookupFunctionEntry 800270c000000001     kernel32:KERNEL32.dll
 0002:000000c8       __imp_RtlCaptureContext    800270c800000001     kernel32:KERNEL32.dll
 0002:000000d0       __imp_InitializeSListHead  800270d000000001     kernel32:KERNEL32.dll
 0002:000000d8       __imp_DisableThreadLibraryCalls 800270d800000001     kernel32:KERNEL32.dll
 0002:000000e0       __imp_GetSystemTimeAsFileTime 800270e000000001     kernel32:KERNEL32.dll
 0002:000000e8       __imp_GetCurrentThreadId   800270e800000001     kernel32:KERNEL32.dll
 0002:000000f0       __imp_GetCurrentProcessId  800270f000000001     kernel32:KERNEL32.dll
 0002:000000f8       __imp_QueryPerformanceCounter 800270f800000001     kernel32:KERNEL32.dll
 0002:00000100       __imp_TerminateProcess     8002710000000001     kernel32:KERNEL32.dll
 0002:00000108       \177KERNEL32_NULL_THUNK_DATA 8002710800000001     kernel32:KERNEL32.dll
 0002:00000110       __imp___C_specific_handler_noexcept 8002711000000001     vcruntime:VCRUNTIME140.dll
 0002:00000118       __imp___vcrt_GetModuleFileNameW 8002711800000001     vcruntime:VCRUNTIME140.dll
 0002:00000120       __imp___vcrt_LoadLibraryExW 8002712000000001     vcruntime:VCRUNTIME140.dll
 0002:00000128       __imp_memcpy               8002712800000001     vcruntime:VCRUNTIME140.dll
 0002:00000130       __imp_memset               8002713000000001     vcruntime:VCRUNTIME140.dll
 0002:00000138       __imp_memchr               8002713800000001     vcruntime:VCRUNTIME140.dll
 0002:00000140       __imp___C_specific_handler 8002714000000001     vcruntime:VCRUNTIME140.dll
 0002:00000148       __imp___std_type_info_destroy_list 8002714800000001     vcruntime:VCRUNTIME140.dll
 0002:00000150       \177VCRUNTIME140_NULL_THUNK_DATA 8002715000000001     vcruntime:VCRUNTIME140.dll
 0002:00000158       __imp_wcstombs             8002715800000001     ucrt:api-ms-win-crt-convert-l1-1-0.dll
 0002:00000160       \177api-ms-win-crt-convert-l1-1-0_NULL_THUNK_DATA 8002716000000001     ucrt:api-ms-win-crt-convert-l1-1-0.dll
 0002:00000168       __imp_free                 8002716800000001     ucrt:api-ms-win-crt-heap-l1-1-0.dll
 0002:00000170       __imp_malloc               8002717000000001     ucrt:api-ms-win-crt-heap-l1-1-0.dll
 0002:00000178       \177api-ms-win-crt-heap-l1-1-0_NULL_THUNK_DATA 8002717800000001     ucrt:api-ms-win-crt-heap-l1-1-0.dll
 0002:00000180       __imp__crt_atexit          8002718000000001     ucrt:api-ms-win-crt-runtime-l1-1-0.dll
 0002:00000188       __imp__crt_at_quick_exit   8002718800000001     ucrt:api-ms-win-crt-runtime-l1-1-0.dll
 0002:00000190       __imp__cexit               8002719000000001     ucrt:api-ms-win-crt-runtime-l1-1-0.dll
 0002:00000198       __imp_terminate            8002719800000001     ucrt:api-ms-win-crt-runtime-l1-1-0.dll
 0002:000001a0       __imp__execute_onexit_table 800271a000000001     ucrt:api-ms-win-crt-runtime-l1-1-0.dll
 0002:000001a8       __imp__register_onexit_function 800271a800000001     ucrt:api-ms-win-crt-runtime-l1-1-0.dll
 0002:000001b0       __imp__initterm            800271b000000001     ucrt:api-ms-win-crt-runtime-l1-1-0.dll
 0002:000001b8       __imp__initialize_narrow_environment 800271b800000001     ucrt:api-ms-win-crt-runtime-l1-1-0.dll
 0002:000001c0       __imp__initterm_e          800271c000000001     ucrt:api-ms-win-crt-runtime-l1-1-0.dll
 0002:000001c8       __imp__configure_narrow_argv 800271c800000001     ucrt:api-ms-win-crt-runtime-l1-1-0.dll
 0002:000001d0       __imp__seh_filter_dll      800271d000000001     ucrt:api-ms-win-crt-runtime-l1-1-0.dll
 0002:000001d8       __imp__errno               800271d800000001     ucrt:api-ms-win-crt-runtime-l1-1-0.dll
 0002:000001e0       __imp_strerror             800271e000000001     ucrt:api-ms-win-crt-runtime-l1-1-0.dll
 0002:000001e8       __imp__initialize_onexit_table 800271e800000001     ucrt:api-ms-win-crt-runtime-l1-1-0.dll
 0002:000001f0       \177api-ms-win-crt-runtime-l1-1-0_NULL_THUNK_DATA 800271f000000001     ucrt:api-ms-win-crt-runtime-l1-1-0.dll
 0002:000001f8       __imp_ftell                800271f800000001     ucrt:api-ms-win-crt-stdio-l1-1-0.dll
 0002:00000200       __imp__write               8002720000000001     ucrt:api-ms-win-crt-stdio-l1-1-0.dll
 0002:00000208       __imp_fclose               8002720800000001     ucrt:api-ms-win-crt-stdio-l1-1-0.dll
 0002:00000210       __imp_fseek                8002721000000001     ucrt:api-ms-win-crt-stdio-l1-1-0.dll
 0002:00000218       __imp__close               8002721800000001     ucrt:api-ms-win-crt-stdio-l1-1-0.dll
 0002:00000220       __imp__read                8002722000000001     ucrt:api-ms-win-crt-stdio-l1-1-0.dll
 0002:00000228       __imp__lseeki64            8002722800000001     ucrt:api-ms-win-crt-stdio-l1-1-0.dll
 0002:00000230       __imp_fopen                8002723000000001     ucrt:api-ms-win-crt-stdio-l1-1-0.dll
 0002:00000238       __imp___stdio_common_vsprintf 8002723800000001     ucrt:api-ms-win-crt-stdio-l1-1-0.dll
 0002:00000240       __imp__wopen               8002724000000001     ucrt:api-ms-win-crt-stdio-l1-1-0.dll
 0002:00000248       __imp_fwrite               8002724800000001     ucrt:api-ms-win-crt-stdio-l1-1-0.dll
 0002:00000250       __imp__fseeki64            8002725000000001     ucrt:api-ms-win-crt-stdio-l1-1-0.dll
 0002:00000258       __imp_fread                8002725800000001     ucrt:api-ms-win-crt-stdio-l1-1-0.dll
 0002:00000260       __imp_ferror               8002726000000001     ucrt:api-ms-win-crt-stdio-l1-1-0.dll
 0002:00000268       __imp__open                8002726800000001     ucrt:api-ms-win-crt-stdio-l1-1-0.dll
 0002:00000270       __imp___stdio_common_vsprintf_s 8002727000000001     ucrt:api-ms-win-crt-stdio-l1-1-0.dll
 0002:00000278       __imp__ftelli64            8002727800000001     ucrt:api-ms-win-crt-stdio-l1-1-0.dll
 0002:00000280       \177api-ms-win-crt-stdio-l1-1-0_NULL_THUNK_DATA 8002728000000001     ucrt:api-ms-win-crt-stdio-l1-1-0.dll
 0002:00000288       __imp_strlen               8002728800000001     ucrt:api-ms-win-crt-string-l1-1-0.dll
 0002:00000290       __imp_strcmp               8002729000000001     ucrt:api-ms-win-crt-string-l1-1-0.dll
 0002:00000298       __imp_strcat_s             8002729800000001     ucrt:api-ms-win-crt-string-l1-1-0.dll
 0002:000002a0       __imp_strcpy_s             800272a000000001     ucrt:api-ms-win-crt-string-l1-1-0.dll
 0002:000002a8       \177api-ms-win-crt-string-l1-1-0_NULL_THUNK_DATA 800272a800000001     ucrt:api-ms-win-crt-string-l1-1-0.dll
 0002:000002b0       __imp__time64              800272b000000001     ucrt:api-ms-win-crt-time-l1-1-0.dll
 0002:000002b8       \177api-ms-win-crt-time-l1-1-0_NULL_THUNK_DATA 800272b800000001     ucrt:api-ms-win-crt-time-l1-1-0.dll
 0002:000002c0       __imp_srand                800272c000000001     ucrt:api-ms-win-crt-utility-l1-1-0.dll
 0002:000002c8       __imp_rand                 800272c800000001     ucrt:api-ms-win-crt-utility-l1-1-0.dll
 0002:000002d0       \177api-ms-win-crt-utility-l1-1-0_NULL_THUNK_DATA 800272d000000001     ucrt:api-ms-win-crt-utility-l1-1-0.dll
 0002:000002d8       __guard_check_icall_fptr   800272d800000001     MSVCRT:guard_support.obj
 0002:000002e0       __guard_dispatch_icall_fptr 800272e000000001     MSVCRT:guard_support.obj
 0002:000002e8       __xc_a                     800272e800000001     MSVCRT:initializers.obj
 0002:000002f0       __xc_z                     800272f000000001     MSVCRT:initializers.obj
 0002:000002f8       __xi_a                     800272f800000001     MSVCRT:initializers.obj
 0002:00000300       __xi_z                     8002730000000001     MSVCRT:initializers.obj
 0002:00000308       __xp_a                     8002730800000001     MSVCRT:initializers.obj
 0002:00000310       __xp_z                     8002731000000001     MSVCRT:initializers.obj
 0002:00000318       __xt_a                     8002731800000001     MSVCRT:initializers.obj
 0002:00000320       __xt_z                     8002732000000001     MSVCRT:initializers.obj
 0002:00000330       _pRawDllMain               8002733000000001     MSVCRT:dll_dllmain.obj
 0002:00000330       _pDefaultRawDllMain        8002733000000001     MSVCRT:dll_dllmain.obj
 0002:00000338       ??_C@_06CJNJFBNP@1?42?411@ 8002733800000001     compress.obj
 0002:00003650       _length_code               8002a65000000001     trees.obj
 0002:00003750       _dist_code                 8002a75000000001     trees.obj
 0002:00004120       unz_copyright              8002b12000000001     unzip.obj
 0002:00004180       z_errmsg                   8002b18000000001     zutil.obj
 0002:000041d0       ??_C@_02DKCKIIND@?$CFs@    8002b1d000000001     gzlib.obj
 0002:000041d8       ??_C@_07EBNKNFJN@?$DMfd?3?$CFd?$DO@ 8002b1d800000001     gzlib.obj
 0002:000041e0       ??_C@_0O@BNNCBLEN@out?5of?5memory@ 8002b1e000000001     gzlib.obj
 0002:000041ee       ??_C@_00CNPNBAHC@@         8002b1ee00000001     gzlib.obj
 0002:000041f0       ??_C@_02LMMGGCAJ@?3?5@     8002b1f000000001     gzlib.obj
 0002:000041f4       ??_C@_06DIJPEION@?$CFs?$CFs?$CFs@ 8002b1f400000001     gzlib.obj
 0002:00004200       ??_C@_0BH@CFIIDOJD@unexpected?5end?5of?5file@ 8002b20000000001     gzread.obj
 0002:00004218       ??_C@_0CH@CPOLIEKA@internal?5error?3?5inflate?5stream?5@ 8002b21800000001     gzread.obj
 0002:00004240       ??_C@_0BG@HCKBMIHF@compressed?5data?5error@ 8002b24000000001     gzread.obj
 0002:00004258       ??_C@_0BP@HLDABFKK@request?5does?5not?5fit?5in?5an?5int@ 8002b25800000001     gzread.obj
 0002:00004278       ??_C@_0CB@EGGJDMIK@request?5does?5not?5fit?5in?5a?5size_@ 8002b27800000001     gzread.obj
 0002:000042a0       ??_C@_0BP@IIKIGMCC@out?5of?5room?5to?5push?5characters@ 8002b2a000000001     gzread.obj
 0002:000042c0       ??_C@_0CH@DEEGAHIB@internal?5error?3?5deflate?5stream?5@ 8002b2c000000001     gzwrite.obj
 0002:000042e8       ??_C@_0CF@MLPJFDMM@requested?5length?5does?5not?5fit?5i@ 8002b2e800000001     gzwrite.obj
 0002:00004310       ??_C@_0BD@PJCBIDD@invalid?5block?5type@ 8002b31000000001     infback.obj
 0002:00004328       ??_C@_0BN@LGAADGOK@invalid?5stored?5block?5lengths@ 8002b32800000001     infback.obj
 0002:00004348       ??_C@_0CE@GMIGFPBB@too?5many?5length?5or?5distance?5sym@ 8002b34800000001     infback.obj
 0002:00004370       ??_C@_0BJ@HDEPPGOH@invalid?5code?5lengths?5set@ 8002b37000000001     infback.obj
 0002:00004390       ??_C@_0BK@BMMPFBBH@invalid?5bit?5length?5repeat@ 8002b39000000001     infback.obj
 0002:000043b0       ??_C@_0CF@DGDMADCD@invalid?5code?5?9?9?5missing?5end?9of?9@ 8002b3b000000001     infback.obj
 0002:000043d8       ??_C@_0BM@IIMGAINC@invalid?5literal?1lengths?5set@ 8002b3d800000001     infback.obj
 0002:000043f8       ??_C@_0BG@GMDFCBGP@invalid?5distances?5set@ 8002b3f800000001     infback.obj
 0002:00004410       ??_C@_0BM@FFFLPBBC@invalid?5literal?1length?5code@ 8002b41000000001     infback.obj
 0002:00004430       ??_C@_0BG@LBKINIKP@invalid?5distance?5code@ 8002b43000000001     infback.obj
 0002:00004448       ??_C@_0BO@ECPMAOGG@invalid?5distance?5too?5far?5back@ 8002b44800000001     infback.obj
 0002:00004468       ??_C@_0BH@LIBMMIGA@incorrect?5header?5check@ 8002b46800000001     inflate.obj
 0002:00004480       ??_C@_0BL@IHKGDAEE@unknown?5compression?5method@ 8002b48000000001     inflate.obj
 0002:000044a0       ??_C@_0BE@EMOGCLGO@invalid?5window?5size@ 8002b4a000000001     inflate.obj
 0002:000044b8       ??_C@_0BJ@BLBBCOMO@unknown?5header?5flags?5set@ 8002b4b800000001     inflate.obj
 0002:000044d8       ??_C@_0BE@GONKLEPM@header?5crc?5mismatch@ 8002b4d800000001     inflate.obj
 0002:000044f0       ??_C@_0BF@MEIGEHBE@incorrect?5data?5check@ 8002b4f000000001     inflate.obj
 0002:00004508       ??_C@_0BH@FGKKJGOC@incorrect?5length?5check@ 8002b50800000001     inflate.obj
 0002:00004520       ??_C@_02JDPG@rb@           8002b52000000001     ioapi.obj
 0002:00004524       ??_C@_03HMFOOINA@r?$CLb@   8002b52400000001     ioapi.obj
 0002:00004528       ??_C@_02GMLFBBN@wb@        8002b52800000001     ioapi.obj
 0002:0000452c       ??_C@_01JOAMLHOP@?9@       8002b52c00000001     zip.obj
 0002:00004530       ??_C@_0BA@MOKMMFOD@need?5dictionary@ 8002b53000000001     zutil.obj
 0002:00004540       ??_C@_0L@FNAOCBOG@stream?5end@ 8002b54000000001     zutil.obj
 0002:00004550       ??_C@_0L@KIJFAKBJ@file?5error@ 8002b55000000001     zutil.obj
 0002:00004560       ??_C@_0N@MKKNPMJD@stream?5error@ 8002b56000000001     zutil.obj
 0002:00004570       ??_C@_0L@HAHMBNLP@data?5error@ 8002b57000000001     zutil.obj
 0002:00004580       ??_C@_0BE@OGGJBMCE@insufficient?5memory@ 8002b58000000001     zutil.obj
 0002:00004598       ??_C@_0N@DFPGLBGC@buffer?5error@ 8002b59800000001     zutil.obj
 0002:000045a8       ??_C@_0BF@CJFPCCEG@incompatible?5version@ 8002b5a800000001     zutil.obj
 0002:00006b30       ??_C@_0NN@NGPKDKPD@The?5value?5of?5ESP?5was?5not?5proper@ 8002db3000000001     MSVCRT:error.obj
 0002:00006c10       ??_C@_0BBN@GPMLNJCF@A?5cast?5to?5a?5smaller?5data?5type?5h@ 8002dc1000000001     MSVCRT:error.obj
 0002:00006d30       ??_C@_0BN@FFOINMNJ@Stack?5memory?5was?5corrupted?6?$AN@ 8002dd3000000001     MSVCRT:error.obj
 0002:00006d50       ??_C@_0DG@HKJMLLLP@A?5local?5variable?5was?5used?5befor@ 8002dd5000000001     MSVCRT:error.obj
 0002:00006d88       ??_C@_0CM@NGINOKPC@Stack?5memory?5around?5_alloca?5was@ 8002dd8800000001     MSVCRT:error.obj
 0002:00006db8       ??_C@_0BO@GNIAFIKK@Unknown?5Runtime?5Check?5Error?6?$AN@ 8002ddb800000001     MSVCRT:error.obj
 0002:00006de0       ??_C@_1GM@OLMCBDMB@?$AAR?$AAu?$AAn?$AAt?$AAi?$AAm?$AAe?$AA?5?$AAC?$AAh?$AAe?$AAc?$AAk?$AA?5?$AAE@ 8002dde000000001     MSVCRT:error.obj
 0002:00006e50       ??_C@_1EA@NFKNIFJP@?$AAR?$AAu?$AAn?$AA?9?$AAT?$AAi?$AAm?$AAe?$AA?5?$AAC?$AAh?$AAe?$AAc?$AAk?$AA?5@ 8002de5000000001     MSVCRT:error.obj
 0002:00006e90       ??_C@_0BB@PFFGGCJP@Unknown?5Filename@ 8002de9000000001     MSVCRT:error.obj
 0002:00006ea8       ??_C@_0BE@GNBOBNCK@Unknown?5Module?5Name@ 8002dea800000001     MSVCRT:error.obj
 0002:00006ec0       ??_C@_0CA@IODNCDPG@Run?9Time?5Check?5Failure?5?$CD?$CFd?5?9?5?$CFs@ 8002dec000000001     MSVCRT:error.obj
 0002:00006ee0       ??_C@_0CG@IAFNJNEE@Stack?5corrupted?5near?5unknown?5va@ 8002dee000000001     MSVCRT:error.obj
 0002:00006f08       ??_C@_05MKKEDADM@?$CF?42X?5@ 8002df0800000001     MSVCRT:error.obj
 0002:00006f10       ??_C@_0EJ@LJKNEOLN@Stack?5area?5around?5_alloca?5memor@ 8002df1000000001     MSVCRT:error.obj
 0002:00006f5c       ??_C@_01EEMJAFIK@?6@       8002df5c00000001     MSVCRT:error.obj
 0002:00006f60       ??_C@_02LLMPMKNF@?$DO?5@   8002df6000000001     MSVCRT:error.obj
 0002:00006f68       ??_C@_08OMAHNMHJ@?6Data?3?5?$DM@ 8002df6800000001     MSVCRT:error.obj
 0002:00006f78       ??_C@_0CK@DKGBICFE@?6Allocation?5number?5within?5this?5@ 8002df7800000001     MSVCRT:error.obj
 0002:00006fa8       ??_C@_07DFDJCKFN@?6Size?3?5@ 8002dfa800000001     MSVCRT:error.obj
 0002:00006fb0       ??_C@_0N@MHFFIMFG@?6Address?3?50x@ 8002dfb000000001     MSVCRT:error.obj
 0002:00006fc0       ??_C@_0EI@CLEPFNGI@Stack?5area?5around?5_alloca?5memor@ 8002dfc000000001     MSVCRT:error.obj
 0002:00007008       ??_C@_0BK@ODNDAGKB@?$CFs?$CFs?$CFp?$CFs?$CFzd?$CFs?$CFd?$CFs?$CFs?$CFs?$CFs?$CFs@ 8002e00800000001     MSVCRT:error.obj
 0002:00007028       ??_C@_0DE@OHJBPMBP@A?5variable?5is?5being?5used?5withou@ 8002e02800000001     MSVCRT:error.obj
 0002:00007088       ??_C@_0BJ@HEGAHDFO@Stack?5pointer?5corruption@ 8002e08800000001     MSVCRT:userapi.obj
 0002:000070a8       ??_C@_0CK@FEGOIOPB@Cast?5to?5smaller?5type?5causing?5lo@ 8002e0a800000001     MSVCRT:userapi.obj
 0002:000070d8       ??_C@_0BI@CIGMDCBH@Stack?5memory?5corruption@ 8002e0d800000001     MSVCRT:userapi.obj
 0002:000070f0       ??_C@_0CK@CNLNOEPB@Local?5variable?5used?5before?5init@ 8002e0f000000001     MSVCRT:userapi.obj
 0002:00007120       ??_C@_0BP@OGBCLIBO@Stack?5around?5_alloca?5corrupted@ 8002e12000000001     MSVCRT:userapi.obj
 0002:00007170       ??_C@_1EI@MLPKHBGE@?$AAa?$AAp?$AAi?$AA?9?$AAm?$AAs?$AA?9?$AAw?$AAi?$AAn?$AA?9?$AAc?$AAo?$AAr?$AAe@ 8002e17000000001     MSVCRT:pdblkup.obj
 0002:000071b8       ??_C@_1BK@JHLNAEJL@?$AAa?$AAd?$AAv?$AAa?$AAp?$AAi?$AA3?$AA2?$AA?4?$AAd?$AAl?$AAl@ 8002e1b800000001     MSVCRT:pdblkup.obj
 0002:000071d8       ??_C@_0O@COHOBMLB@RegOpenKeyExW@ 8002e1d800000001     MSVCRT:pdblkup.obj
 0002:000071e8       ??_C@_0BB@GLNAEDBD@RegQueryValueExW@ 8002e1e800000001     MSVCRT:pdblkup.obj
 0002:00007200       ??_C@_0M@HLOHPNFA@RegCloseKey@ 8002e20000000001     MSVCRT:pdblkup.obj
 0002:00007210       ??_C@_1HE@EBEAGLFB@?$AAS?$AAO?$AAF?$AAT?$AAW?$AAA?$AAR?$AAE?$AA?2?$AAW?$AAo?$AAw?$AA6?$AA4?$AA3@ 8002e21000000001     MSVCRT:pdblkup.obj
 0002:00007288       ??_C@_1BG@EABPBLLF@?$AAP?$AAr?$AAo?$AAd?$AAu?$AAc?$AAt?$AAD?$AAi?$AAr@ 8002e28800000001     MSVCRT:pdblkup.obj
 0002:000072a0       ??_C@_0BB@KCIACLNC@PDBOpenValidate5@ 8002e2a000000001     MSVCRT:pdblkup.obj
 0002:000072b4       ??_C@_01KDCPPGHE@r@        8002e2b400000001     MSVCRT:pdblkup.obj
 0002:00007340       _load_config_used          8002e34000000001     MSVCRT:loadcfg.obj
 0002:00007720       __rtc_iaa                  8002e72000000001     MSVCRT:initsect.obj
 0002:00007728       __rtc_izz                  8002e72800000001     MSVCRT:initsect.obj
 0002:00007730       __rtc_taa                  8002e73000000001     MSVCRT:initsect.obj
 0002:00007738       __rtc_tzz                  8002e73800000001     MSVCRT:initsect.obj
 0002:000090dc       __IMPORT_DESCRIPTOR_KERNEL32 800300dc00000001     kernel32:KERNEL32.dll
 0002:000090f0       __IMPORT_DESCRIPTOR_VCRUNTIME140 800300f000000001     vcruntime:VCRUNTIME140.dll
 0002:00009104       __IMPORT_DESCRIPTOR_api-ms-win-crt-stdio-l1-1-0 8003010400000001     ucrt:api-ms-win-crt-stdio-l1-1-0.dll
 0002:00009118       __IMPORT_DESCRIPTOR_api-ms-win-crt-convert-l1-1-0 8003011800000001     ucrt:api-ms-win-crt-convert-l1-1-0.dll
 0002:0000912c       __IMPORT_DESCRIPTOR_api-ms-win-crt-string-l1-1-0 8003012c00000001     ucrt:api-ms-win-crt-string-l1-1-0.dll
 0002:00009140       __IMPORT_DESCRIPTOR_api-ms-win-crt-heap-l1-1-0 8003014000000001     ucrt:api-ms-win-crt-heap-l1-1-0.dll
 0002:00009154       __IMPORT_DESCRIPTOR_api-ms-win-crt-runtime-l1-1-0 8003015400000001     ucrt:api-ms-win-crt-runtime-l1-1-0.dll
 0002:00009168       __IMPORT_DESCRIPTOR_api-ms-win-crt-utility-l1-1-0 8003016800000001     ucrt:api-ms-win-crt-utility-l1-1-0.dll
 0002:0000917c       __IMPORT_DESCRIPTOR_api-ms-win-crt-time-l1-1-0 8003017c00000001     ucrt:api-ms-win-crt-time-l1-1-0.dll
 0002:00009190       __NULL_IMPORT_DESCRIPTOR   8003019000000001     kernel32:KERNEL32.dll
 0003:00000000       __scrt_native_dllmain_reason 8003100000000001     MSVCRT:utility.obj
 0003:00000008       __security_cookie_complement 8003100800000001     MSVCRT:gs_cookie.obj
 0003:00000010       __security_cookie          8003101000000001     MSVCRT:gs_cookie.obj
 0003:00000018       __isa_available            8003101800000001     MSVCRT:cpu_disp.obj
 0003:0000001c       __isa_enabled              8003101c00000001     MSVCRT:cpu_disp.obj
 0003:00000020       __memcpy_nt_iters          8003102000000001     MSVCRT:cpu_disp.obj
 0003:00000028       __memset_nt_iters          8003102800000001     MSVCRT:cpu_disp.obj
 0003:00000030       __scrt_ucrt_dll_is_in_use  8003103000000001     MSVCRT:ucrt_stubs.obj
 0003:00000040       ?_RTC_ErrorLevels@@3PAHA   8003104000000001     MSVCRT:error.obj
 0003:00000070       ?__type_info_root_node@@3U__type_info_node@@A 8003107000000001     MSVCRT:tncleanup.obj
 0003:00000080       ?_OptionsStorage@?1??__local_stdio_printf_options@@9@4_KA 8003108000000001     MSVCRT:default_local_stdio_options.obj
 0003:00000088       ?_OptionsStorage@?1??__local_stdio_scanf_options@@9@4_KA 8003108800000001     MSVCRT:default_local_stdio_options.obj
 0003:00000090       __scrt_current_native_startup_state 8003109000000001     MSVCRT:utility.obj
 0003:00000098       __scrt_native_startup_lock 8003109800000001     MSVCRT:utility.obj
 0003:000000d8       __scrt_debugger_hook_flag  800310d800000001     MSVCRT:utility_desktop.obj
 0003:000000dc       __favor                    800310dc00000001     MSVCRT:cpu_disp.obj
 0003:00000680       __DebuggerCurrentSteppingThreadId 8003168000000001     <common>
 0003:00000688       __dyn_tls_init_callback    8003168800000001     <common>
 0003:00000690       ?_OptionsStorage@?1??__local_stdio_printf_options@@9@9 8003169000000001     <common>
 0003:00000698       ?_OptionsStorage@?1??__local_stdio_scanf_options@@9@9 8003169800000001     <common>

 entry point at        0001:000236b8

 Static symbols

 0000:fffca000       .debug$S                   8000000000000001     ucrt:api-ms-win-crt-string-l1-1-0.dll
 0000:fffca000       .debug$S                   8000000000000001     kernel32:KERNEL32.dll
 0000:fffca000       .debug$S                   8000000000000001     kernel32:KERNEL32.dll
 0000:fffca000       .debug$S                   8000000000000001     kernel32:KERNEL32.dll
 0000:fffca000       .debug$S                   8000000000000001     kernel32:KERNEL32.dll
 0000:fffca000       .debug$S                   8000000000000001     kernel32:KERNEL32.dll
 0000:fffca000       .debug$S                   8000000000000001     kernel32:KERNEL32.dll
 0000:fffca000       .debug$S                   8000000000000001     kernel32:KERNEL32.dll
 0000:fffca000       .debug$S                   8000000000000001     kernel32:KERNEL32.dll
 0000:fffca000       .debug$S                   8000000000000001     kernel32:KERNEL32.dll
 0000:fffca000       .debug$S                   8000000000000001     kernel32:KERNEL32.dll
 0000:fffca000       .debug$S                   8000000000000001     kernel32:KERNEL32.dll
 0000:fffca000       .debug$S                   8000000000000001     ucrt:api-ms-win-crt-stdio-l1-1-0.dll
 0000:fffca000       .debug$S                   8000000000000001     ucrt:api-ms-win-crt-string-l1-1-0.dll
 0000:fffca000       .debug$S                   8000000000000001     ucrt:api-ms-win-crt-string-l1-1-0.dll
 0000:fffca000       .debug$S                   8000000000000001     vcruntime:VCRUNTIME140.dll
 0000:fffca000       .debug$S                   8000000000000001     vcruntime:VCRUNTIME140.dll
 0000:fffca000       .debug$S                   8000000000000001     vcruntime:VCRUNTIME140.dll
 0000:fffca000       .debug$S                   8000000000000001     ucrt:api-ms-win-crt-runtime-l1-1-0.dll
 0000:fffca000       .debug$S                   8000000000000001     zlibwapi.exp
 0000:fffca000       .debug$S                   8000000000000001     kernel32:KERNEL32.dll
 0000:fffca000       .debug$S                   8000000000000001     kernel32:KERNEL32.dll
 0000:fffca000       .debug$S                   8000000000000001     kernel32:KERNEL32.dll
 0002:fffd9000       __guard_fids_?dllmain_dispatch@@YAHQEAUHINSTANCE__@@KQEAX@Z 8000000000000001     MSVCRT:dll_dllmain.obj
 0000:fffca000       .debug$S                   8000000000000001     ucrt:api-ms-win-crt-runtime-l1-1-0.dll
 0000:fffca000       .debug$S                   8000000000000001     kernel32:KERNEL32.dll
 0000:fffca000       .debug$S                   8000000000000001     kernel32:KERNEL32.dll
 0000:fffca000       .debug$S                   8000000000000001     kernel32:KERNEL32.dll
 0000:fffca000       .debug$S                   8000000000000001     kernel32:KERNEL32.dll
 0000:fffca000       .debug$S                   8000000000000001     ucrt:api-ms-win-crt-runtime-l1-1-0.dll
 0000:fffca000       .debug$S                   8000000000000001     kernel32:KERNEL32.dll
 0000:fffca000       .debug$S                   8000000000000001     ucrt:api-ms-win-crt-runtime-l1-1-0.dll
 0000:fffca000       .debug$S                   8000000000000001     kernel32:KERNEL32.dll
 0000:fffca000       .debug$S                   8000000000000001     kernel32:KERNEL32.dll
 0000:fffca000       .debug$S                   8000000000000001     kernel32:KERNEL32.dll
 0000:fffca000       .debug$S                   8000000000000001     ucrt:api-ms-win-crt-runtime-l1-1-0.dll
 0000:fffca000       .debug$S                   8000000000000001     kernel32:KERNEL32.dll
 0000:fffca000       .debug$S                   8000000000000001     ucrt:api-ms-win-crt-runtime-l1-1-0.dll
 0000:fffca000       .debug$S                   8000000000000001     kernel32:KERNEL32.dll
 0000:fffca000       .debug$S                   8000000000000001     kernel32:KERNEL32.dll
 0000:fffca000       .debug$S                   8000000000000001     ucrt:api-ms-win-crt-runtime-l1-1-0.dll
 0000:fffca000       .debug$S                   8000000000000001     ucrt:api-ms-win-crt-runtime-l1-1-0.dll
 0000:fffca000       .debug$S                   8000000000000001     ucrt:api-ms-win-crt-stdio-l1-1-0.dll
 0000:fffca000       .debug$S                   8000000000000001     ucrt:api-ms-win-crt-stdio-l1-1-0.dll
 0000:fffca000       .debug$S                   8000000000000001     kernel32:KERNEL32.dll
 0000:fffca000       .debug$S                   8000000000000001     kernel32:KERNEL32.dll
 0002:fffd9000       __guard_fids___scrt_set_unhandled_exception_filter 8000000000000001     MSVCRT:utility_desktop.obj
 0000:fffca000       .debug$S                   8000000000000001     ucrt:api-ms-win-crt-runtime-l1-1-0.dll
 0000:fffca000       .debug$S                   8000000000000001     ucrt:api-ms-win-crt-runtime-l1-1-0.dll
 0000:fffca000       .debug$S                   8000000000000001     ucrt:api-ms-win-crt-convert-l1-1-0.dll
 0000:fffca000       .debug$S                   8000000000000001     ucrt:api-ms-win-crt-stdio-l1-1-0.dll
 0000:fffca000       .debug$S                   8000000000000001     ucrt:api-ms-win-crt-heap-l1-1-0.dll
 0000:fffca000       .debug$S                   8000000000000001     ucrt:api-ms-win-crt-heap-l1-1-0.dll
 0000:fffca000       .debug$S                   8000000000000001     kernel32:KERNEL32.dll
 0000:fffca000       .debug$S                   8000000000000001     ucrt:api-ms-win-crt-stdio-l1-1-0.dll
 0000:fffca000       .debug$S                   8000000000000001     kernel32:KERNEL32.dll
 0000:fffca000       .debug$S                   8000000000000001     kernel32:KERNEL32.dll
 0000:fffca000       .debug$S                   8000000000000001     kernel32:KERNEL32.dll
 0002:fffd9000       __guard_fids__             8000000000000001     MSVCRT:guard_support.obj
 0000:fffca000       .debug$S                   8000000000000001     kernel32:KERNEL32.dll
 0002:fffd9000       __guard_fids__guard_icall_checks_enforced 8000000000000001     MSVCRT:guard_support.obj
 0000:fffca000       .debug$S                   8000000000000001     kernel32:KERNEL32.dll
 0000:fffca000       .debug$S                   8000000000000001     ucrt:api-ms-win-crt-stdio-l1-1-0.dll
 0000:fffca000       .debug$S                   8000000000000001     ucrt:api-ms-win-crt-runtime-l1-1-0.dll
 0000:fffca000       .debug$S                   8000000000000001     ucrt:api-ms-win-crt-runtime-l1-1-0.dll
 0000:fffca000       .debug$S                   8000000000000001     ucrt:api-ms-win-crt-stdio-l1-1-0.dll
 0000:fffca000       .debug$S                   8000000000000001     ucrt:api-ms-win-crt-stdio-l1-1-0.dll
 0000:fffca000       .debug$S                   8000000000000001     ucrt:api-ms-win-crt-stdio-l1-1-0.dll
 0000:fffca000       .debug$S                   8000000000000001     vcruntime:VCRUNTIME140.dll
 0000:fffca000       .debug$S                   8000000000000001     ucrt:api-ms-win-crt-stdio-l1-1-0.dll
 0000:fffca000       .debug$S                   8000000000000001     vcruntime:VCRUNTIME140.dll
 0000:fffca000       .debug$S                   8000000000000001     ucrt:api-ms-win-crt-stdio-l1-1-0.dll
 0000:fffca000       .debug$S                   8000000000000001     vcruntime:VCRUNTIME140.dll
 0000:fffca000       .debug$S                   8000000000000001     ucrt:api-ms-win-crt-stdio-l1-1-0.dll
 0000:fffca000       .debug$S                   8000000000000001     vcruntime:VCRUNTIME140.dll
 0000:fffca000       .debug$S                   8000000000000001     ucrt:api-ms-win-crt-stdio-l1-1-0.dll
 0000:fffca000       .debug$S                   8000000000000001     vcruntime:VCRUNTIME140.dll
 0000:fffca000       .debug$S                   8000000000000001     ucrt:api-ms-win-crt-stdio-l1-1-0.dll
 0000:fffca000       .debug$S                   8000000000000001     ucrt:api-ms-win-crt-stdio-l1-1-0.dll
 0000:fffca000       .debug$S                   8000000000000001     ucrt:api-ms-win-crt-stdio-l1-1-0.dll
 0000:fffca000       .debug$S                   8000000000000001     ucrt:api-ms-win-crt-stdio-l1-1-0.dll
 0000:fffca000       .debug$S                   8000000000000001     ucrt:api-ms-win-crt-string-l1-1-0.dll
 0000:fffca000       .debug$S                   8000000000000001     ucrt:api-ms-win-crt-utility-l1-1-0.dll
 0000:fffca000       .debug$S                   8000000000000001     ucrt:api-ms-win-crt-utility-l1-1-0.dll
 0000:fffca000       .debug$S                   8000000000000001     ucrt:api-ms-win-crt-time-l1-1-0.dll
 0000:fffca000       .debug$S                   8000000000000001     ucrt:api-ms-win-crt-runtime-l1-1-0.dll
 0000:fffca000       .debug$S                   8000000000000001     ucrt:api-ms-win-crt-runtime-l1-1-0.dll
 0001:000008c0       adler32_combine_           800018c000000001 f   adler32.obj
 0001:00001170       crc32_little               8000217000000001 f   crc32.obj
 0001:000019d0       crc32_big                  800029d000000001 f   crc32.obj
 0001:00002290       gf2_matrix_times           8000329000000001 f   crc32.obj
 0001:00002310       gf2_matrix_square          8000331000000001 f   crc32.obj
 0001:00002390       crc32_combine_             8000339000000001 f   crc32.obj
 0001:000025a0       slide_hash                 800035a000000001 f   deflate.obj
 0001:00002c20       deflateStateCheck          80003c2000000001 f   deflate.obj
 0001:00003ae0       putShortMSB                80004ae000000001 f   deflate.obj
 0001:00003b70       flush_pending              80004b7000000001 f   deflate.obj
 0001:00005670       read_buf                   8000667000000001 f   deflate.obj
 0001:00005790       lm_init                    8000679000000001 f   deflate.obj
 0001:00005930       fill_window                8000693000000001 f   deflate.obj
 0001:00005e10       deflate_stored             80006e1000000001 f   deflate.obj
 0001:000068f0       deflate_fast               800078f000000001 f   deflate.obj
 0001:00007380       deflate_slow               8000838000000001 f   deflate.obj
 0001:000080c0       deflate_rle                800090c000000001 f   deflate.obj
 0001:00008970       deflate_huff               8000997000000001 f   deflate.obj
 0001:00008f50       gz_reset                   80009f5000000001 f   gzlib.obj
 0001:00009000       gz_open                    8000a00000000001 f   gzlib.obj
 0001:00009490       $LN56                      8000a49000000001     gzlib.obj
 0001:000094bc       $LN55                      8000a4bc00000001     gzlib.obj
 0001:0000a150       gz_load                    8000b15000000001 f   gzread.obj
 0001:0000a260       gz_avail                   8000b26000000001 f   gzread.obj
 0001:0000a3c0       gz_look                    8000b3c000000001 f   gzread.obj
 0001:0000a6b0       gz_decomp                  8000b6b000000001 f   gzread.obj
 0001:0000a860       gz_fetch                   8000b86000000001 f   gzread.obj
 0001:0000a9b0       gz_skip                    8000b9b000000001 f   gzread.obj
 0001:0000aac0       gz_read                    8000bac000000001 f   gzread.obj
 0001:0000b6f0       gz_init                    8000c6f000000001 f   gzwrite.obj
 0001:0000b8f0       gz_comp                    8000c8f000000001 f   gzwrite.obj
 0001:0000bbf0       gz_zero                    8000cbf000000001 f   gzwrite.obj
 0001:0000bd30       gz_write                   8000cd3000000001 f   gzwrite.obj
 0001:0000cc50       fixedtables                8000dc5000000001 f   infback.obj
 0001:0000ea58       $LN385                     8000fa5800000001     infback.obj
 0001:0000ef40       inflateStateCheck          8000ff4000000001 f   inflate.obj
 0001:0000f5f0       fixedtables                800105f000000001 f   inflate.obj
 0001:0000f660       updatewindow               8001066000000001 f   inflate.obj
 0001:0001280c       $LN559                     8001380c00000001     inflate.obj
 0001:00012bf0       syncsearch                 80013bf000000001 f   inflate.obj
 0001:00013fe0       fopen_file_func            80014fe000000001 f   ioapi.obj
 0001:000140a0       fopen64_file_func          800150a000000001 f   ioapi.obj
 0001:00014160       fread_file_func            8001516000000001 f   ioapi.obj
 0001:000141d0       fwrite_file_func           800151d000000001 f   ioapi.obj
 0001:00014240       ftell_file_func            8001524000000001 f   ioapi.obj
 0001:00014290       ftell64_file_func          8001529000000001 f   ioapi.obj
 0001:000142e0       fseek_file_func            800152e000000001 f   ioapi.obj
 0001:000143a0       fseek64_file_func          800153a000000001 f   ioapi.obj
 0001:00014460       fclose_file_func           8001546000000001 f   ioapi.obj
 0001:000144b0       ferror_file_func           800154b000000001 f   ioapi.obj
 0001:000145b0       win32_translate_open_mode  800155b000000001 f   iowin32.obj
 0001:00014690       win32_build_iowin          8001569000000001 f   iowin32.obj
 0001:00014d10       MySetFilePointerEx         80015d1000000001 f   iowin32.obj
 0001:00015580       tr_static_init             8001658000000001 f   trees.obj
 0001:00015690       init_block                 8001669000000001 f   trees.obj
 0001:000157b0       pqdownheap                 800167b000000001 f   trees.obj
 0001:00015a00       gen_bitlen                 80016a0000000001 f   trees.obj
 0001:00015e70       gen_codes                  80016e7000000001 f   trees.obj
 0001:00015fa0       build_tree                 80016fa000000001 f   trees.obj
 0001:00016470       scan_tree                  8001747000000001 f   trees.obj
 0001:000166e0       send_tree                  800176e000000001 f   trees.obj
 0001:00017680       build_bl_tree              8001868000000001 f   trees.obj
 0001:00017780       send_all_trees             8001878000000001 f   trees.obj
 0001:00018860       compress_block             8001986000000001 f   trees.obj
 0001:00019440       detect_data_type           8001a44000000001 f   trees.obj
 0001:00019560       bi_reverse                 8001a56000000001 f   trees.obj
 0001:000195e0       bi_flush                   8001a5e000000001 f   trees.obj
 0001:00019730       bi_windup                  8001a73000000001 f   trees.obj
 0001:00019ba0       unz64local_getByte         8001aba000000001 f   unzip.obj
 0001:00019c60       unz64local_getShort        8001ac6000000001 f   unzip.obj
 0001:00019d30       unz64local_getLong         8001ad3000000001 f   unzip.obj
 0001:00019e60       unz64local_getLong64       8001ae6000000001 f   unzip.obj
 0001:0001a090       strcmpcasenosensitive_internal 8001b09000000001 f   unzip.obj
 0001:0001a220       unz64local_SearchCentralDir 8001b22000000001 f   unzip.obj
 0001:0001a4b0       unz64local_SearchCentralDir64 8001b4b000000001 f   unzip.obj
 0001:0001a8e0       unzOpenInternal            8001b8e000000001 f   unzip.obj
 0001:0001b2b0       unz64local_DosDateToTmuDate 8001c2b000000001 f   unzip.obj
 0001:0001b3a0       unz64local_GetCurrentFileInfoInternal 8001c3a000000001 f   unzip.obj
 0001:0001c700       unz64local_CheckCurrentFileCoherencyHeader 8001d70000000001 f   unzip.obj
 0001:0001dca0       time                       8001eca000000001 f   zip.obj
 0001:0001dce0       decrypt_byte               8001ece000000001 f   zip.obj
 0001:0001dd50       update_keys                8001ed5000000001 f   zip.obj
 0001:0001de30       init_keys                  8001ee3000000001 f   zip.obj
 0001:0001ded0       crypthead                  8001eed000000001 f   zip.obj
 0001:0001e170       allocate_new_datablock     8001f17000000001 f   zip.obj
 0001:0001e1e0       free_datablock             8001f1e000000001 f   zip.obj
 0001:0001e250       init_linkedlist            8001f25000000001 f   zip.obj
 0001:0001e2a0       free_linkedlist            8001f2a000000001 f   zip.obj
 0001:0001e300       add_data_in_datablock      8001f30000000001 f   zip.obj
 0001:0001e4d0       zip64local_putValue        8001f4d000000001 f   zip.obj
 0001:0001e5d0       zip64local_putValue_inmemory 8001f5d000000001 f   zip.obj
 0001:0001e690       zip64local_TmzDateToDosDate 8001f69000000001 f   zip.obj
 0001:0001e760       zip64local_getByte         8001f76000000001 f   zip.obj
 0001:0001e820       zip64local_getShort        8001f82000000001 f   zip.obj
 0001:0001e8f0       zip64local_getLong         8001f8f000000001 f   zip.obj
 0001:0001ea20       zip64local_getLong64       8001fa2000000001 f   zip.obj
 0001:0001ec50       zip64local_SearchCentralDir 8001fc5000000001 f   zip.obj
 0001:0001eee0       zip64local_SearchCentralDir64 8001fee000000001 f   zip.obj
 0001:00021480       zip64FlushWriteBuffer      8002248000000001 f   zip.obj
 0001:00022d50       $$000000                   80023d5000000001     gvmat64.obj
 0001:00023030       $$000000                   8002403000000001     inffasx64.obj
 0001:00023374       ?dllmain_crt_dispatch@@YAHQEAUHINSTANCE__@@KQEAX@Z 8002437400000001 f   MSVCRT:dll_dllmain.obj
 0001:000233c4       ?dllmain_crt_process_attach@@YAHQEAUHINSTANCE__@@QEAX@Z 800243c400000001 f   MSVCRT:dll_dllmain.obj
 0001:000234dc       ?dllmain_crt_process_detach@@YAH_N@Z 800244dc00000001 f   MSVCRT:dll_dllmain.obj
 0001:00023560       ?dllmain_dispatch@@YAHQEAUHINSTANCE__@@KQEAX@Z 8002456000000001 f   MSVCRT:dll_dllmain.obj
 0001:00023694       ?dllmain_raw@@YAHQEAUHINSTANCE__@@KQEAX@Z 8002469400000001 f   MSVCRT:dll_dllmain.obj
 0001:000236f8       __get_entropy              800246f800000001 f   MSVCRT:gs_support.obj
 0001:000238cc       ?find_pe_section@@YAPEAU_IMAGE_SECTION_HEADER@@QEAE_K@Z 800248cc00000001 f   MSVCRT:utility.obj
 0001:00023920       ?is_potentially_valid_image_base@@YA_NQEAX@Z 8002492000000001 f   MSVCRT:utility.obj
 0001:00024520       $$000000                   8002552000000001     MSVCRT:chkstk.obj
 0001:00024584       ?DebuggerProbe@@YA_NK@Z    8002558400000001 f   MSVCRT:error.obj
 0001:000245bc       ?DebuggerRuntime@@YA_NKHPEAXPEB_W@Z 800255bc00000001 f   MSVCRT:error.obj
 0001:000248c8       ?_getMemBlockDataString@@YAXPEAD0PEBD_K@Z 800258c800000001 f   MSVCRT:error.obj
 0001:00024970       ?_strlen_priv@@YA_KPEBD@Z  8002597000000001 f   MSVCRT:error.obj
 0001:00024984       ?failwithmessage@@YAXPEAXHHPEBD@Z 8002598400000001 f   MSVCRT:error.obj
 0001:00024c1c       ?notify_debugger@@YAXAEBUtagEXCEPTION_VISUALCPP_DEBUG_INFO@@@Z 80025c1c00000001 f   MSVCRT:error.obj
 0001:00024e40       ?GetPdbDll@@YAPEAUHINSTANCE__@@XZ 80025e4000000001 f   MSVCRT:pdblkup.obj
 0001:00024e68       ?GetPdbDllFromInstallPath@@YAPEAUHINSTANCE__@@XZ 80025e6800000001 f   MSVCRT:pdblkup.obj
 0001:00025520       $$000000                   8002652000000001     MSVCRT:amdsecgs.obj
 0001:0002581c       capture_current_context    8002681c00000001 f   MSVCRT:gs_report.obj
 0001:0002588c       capture_previous_context   8002688c00000001 f   MSVCRT:gs_report.obj
 0001:00025970       $$000000                   8002697000000001     MSVCRT:guard_dispatch.obj
 0001:00025982       ?fin$0@?0??dllmain_crt_process_attach@@YAHQEAUHINSTANCE__@@QEAX@Z@4HA 8002698200000001 f   MSVCRT:dll_dllmain.obj
 0001:00025999       ?fin$0@?0??dllmain_crt_process_detach@@YAH_N@Z@4HA 8002699900000001 f   MSVCRT:dll_dllmain.obj
 0001:000259b5       ?filt$0@?0??dllmain_dispatch@@YAHQEAUHINSTANCE__@@KQEAX@Z@4HA 800269b500000001 f   MSVCRT:dll_dllmain.obj
 0001:000259eb       __scrt_is_nonwritable_in_current_image$filt$0 800269eb00000001 f   MSVCRT:utility.obj
 0001:00025a03       ?filt$0@?0??notify_debugger@@YAXAEBUtagEXCEPTION_VISUALCPP_DEBUG_INFO@@@Z@4HA 80026a0300000001 f   MSVCRT:error.obj
 0002:00000340       crc_table                  8002734000000001     crc32.obj
 0002:00002340       ?my_version@?1??deflateInit2_@@9@9 8002934000000001     deflate.obj
 0002:00002350       configuration_table        8002935000000001     deflate.obj
 0002:000023f0       ?lenfix@?1??fixedtables@@9@9 800293f000000001     infback.obj
 0002:00002bf0       ?distfix@?1??fixedtables@@9@9 80029bf000000001     infback.obj
 0002:00002c70       ?order@?1??inflateBack@@9@9 80029c7000000001     infback.obj
 0002:00002ca0       ?lenfix@?1??fixedtables@@9@9 80029ca000000001     inflate.obj
 0002:000034a0       ?distfix@?1??fixedtables@@9@9 8002a4a000000001     inflate.obj
 0002:00003520       ?order@?1??inflate@@9@9    8002a52000000001     inflate.obj
 0002:00003550       ?dext@?1??inflate_table@@9@9 8002a55000000001     inftrees.obj
 0002:00003590       ?lext@?1??inflate_table@@9@9 8002a59000000001     inftrees.obj
 0002:000035d0       ?lbase@?1??inflate_table@@9@9 8002a5d000000001     inftrees.obj
 0002:00003610       ?dbase@?1??inflate_table@@9@9 8002a61000000001     inftrees.obj
 0002:00003950       static_dtree               8002a95000000001     trees.obj
 0002:000039d0       extra_blbits               8002a9d000000001     trees.obj
 0002:00003a20       extra_lbits                8002aa2000000001     trees.obj
 0002:00003aa0       base_dist                  8002aaa000000001     trees.obj
 0002:00003b20       base_length                8002ab2000000001     trees.obj
 0002:00003b98       static_l_desc              8002ab9800000001     trees.obj
 0002:00003bb8       static_bl_desc             8002abb800000001     trees.obj
 0002:00003be0       extra_dbits                8002abe000000001     trees.obj
 0002:00003c60       static_ltree               8002ac6000000001     trees.obj
 0002:000040e0       static_d_desc              8002b0e000000001     trees.obj
 0002:00004100       bl_order                   8002b10000000001     trees.obj
 0002:000045c0       compress2$rtcName$0        8002b5c000000001     compress.obj
 0002:000045d0       compress2$rtcVarDesc       8002b5d000000001     compress.obj
 0002:00004610       compress2$rtcFrameData     8002b61000000001     compress.obj
 0002:00004620       crc32_combine_$rtcName$0   8002b62000000001     crc32.obj
 0002:00004628       crc32_combine_$rtcName$1   8002b62800000001     crc32.obj
 0002:00004630       crc32_combine_$rtcVarDesc  8002b63000000001     crc32.obj
 0002:000046b0       crc32_combine_$rtcFrameData 8002b6b000000001     crc32.obj
 0002:000046c0       snprintf$rtcName$0         8002b6c000000001     gzlib.obj
 0002:000046d0       snprintf$rtcVarDesc        8002b6d000000001     gzlib.obj
 0002:00004710       snprintf$rtcFrameData      8002b71000000001     gzlib.obj
 0002:00004720       gzgetc$rtcName$0           8002b72000000001     gzread.obj
 0002:00004730       gzgetc$rtcVarDesc          8002b73000000001     gzread.obj
 0002:00004770       gzgetc$rtcFrameData        8002b77000000001     gzread.obj
 0002:00004780       gz_read$rtcName$0          8002b78000000001     gzread.obj
 0002:00004790       gz_read$rtcVarDesc         8002b79000000001     gzread.obj
 0002:000047d0       gz_read$rtcFrameData       8002b7d000000001     gzread.obj
 0002:000047e0       gz_avail$rtcName$0         8002b7e000000001     gzread.obj
 0002:000047f0       gz_avail$rtcVarDesc        8002b7f000000001     gzread.obj
 0002:00004830       gz_avail$rtcFrameData      8002b83000000001     gzread.obj
 0002:00004840       gzprintf$rtcName$0         8002b84000000001     gzwrite.obj
 0002:00004850       gzprintf$rtcVarDesc        8002b85000000001     gzwrite.obj
 0002:00004890       gzprintf$rtcFrameData      8002b89000000001     gzwrite.obj
 0002:000048a0       gzputc$rtcName$0           8002b8a000000001     gzwrite.obj
 0002:000048b0       gzputc$rtcVarDesc          8002b8b000000001     gzwrite.obj
 0002:000048f0       gzputc$rtcFrameData        8002b8f000000001     gzwrite.obj
 0002:00004900       inflateBack$rtcName$0      8002b90000000001     infback.obj
 0002:00004908       inflateBack$rtcName$1      8002b90800000001     infback.obj
 0002:00004910       inflateBack$rtcName$2      8002b91000000001     infback.obj
 0002:00004918       inflateBack$rtcFrameData   8002b91800000001     infback.obj
 0002:00004930       inflateBack$rtcVarDesc     8002b93000000001     infback.obj
 0002:000049f0       inflate_fast$rtcName$0     8002b9f000000001     inffas8664.obj
 0002:00004a00       inflate_fast$rtcVarDesc    8002ba0000000001     inffas8664.obj
 0002:00004a40       inflate_fast$rtcFrameData  8002ba4000000001     inffas8664.obj
 0002:00004a50       inflateSync$rtcName$0      8002ba5000000001     inflate.obj
 0002:00004a60       inflateSync$rtcVarDesc     8002ba6000000001     inflate.obj
 0002:00004aa0       inflateSync$rtcFrameData   8002baa000000001     inflate.obj
 0002:00004ab0       inflate$rtcName$0          8002bab000000001     inflate.obj
 0002:00004ab8       inflate$rtcName$1          8002bab800000001     inflate.obj
 0002:00004ac0       inflate$rtcName$2          8002bac000000001     inflate.obj
 0002:00004ac8       inflate$rtcFrameData       8002bac800000001     inflate.obj
 0002:00004ae0       inflate$rtcVarDesc         8002bae000000001     inflate.obj
 0002:00004ba0       inflate_table$rtcName$0    8002bba000000001     inftrees.obj
 0002:00004ba8       inflate_table$rtcName$1    8002bba800000001     inftrees.obj
 0002:00004bb0       inflate_table$rtcName$2    8002bbb000000001     inftrees.obj
 0002:00004bb8       inflate_table$rtcFrameData 8002bbb800000001     inftrees.obj
 0002:00004bd0       inflate_table$rtcVarDesc   8002bbd000000001     inftrees.obj
 0002:00004c90       win32_seek64_file_func$rtcName$0 8002bc9000000001     iowin32.obj
 0002:00004ca0       win32_seek64_file_func$rtcVarDesc 8002bca000000001     iowin32.obj
 0002:00004ce0       win32_seek64_file_func$rtcFrameData 8002bce000000001     iowin32.obj
 0002:00004cf0       win32_seek_file_func$rtcName$0 8002bcf000000001     iowin32.obj
 0002:00004d00       win32_seek_file_func$rtcVarDesc 8002bd0000000001     iowin32.obj
 0002:00004d40       win32_seek_file_func$rtcFrameData 8002bd4000000001     iowin32.obj
 0002:00004d50       win32_tell64_file_func$rtcName$0 8002bd5000000001     iowin32.obj
 0002:00004d60       win32_tell64_file_func$rtcVarDesc 8002bd6000000001     iowin32.obj
 0002:00004da0       win32_tell64_file_func$rtcFrameData 8002bda000000001     iowin32.obj
 0002:00004db0       win32_tell_file_func$rtcName$0 8002bdb000000001     iowin32.obj
 0002:00004dc0       win32_tell_file_func$rtcVarDesc 8002bdc000000001     iowin32.obj
 0002:00004e00       win32_tell_file_func$rtcFrameData 8002be0000000001     iowin32.obj
 0002:00004e10       MySetFilePointerEx$rtcName$0 8002be1000000001     iowin32.obj
 0002:00004e20       MySetFilePointerEx$rtcVarDesc 8002be2000000001     iowin32.obj
 0002:00004e60       MySetFilePointerEx$rtcFrameData 8002be6000000001     iowin32.obj
 0002:00004e70       win32_write_file_func$rtcName$0 8002be7000000001     iowin32.obj
 0002:00004e80       win32_write_file_func$rtcVarDesc 8002be8000000001     iowin32.obj
 0002:00004ec0       win32_write_file_func$rtcFrameData 8002bec000000001     iowin32.obj
 0002:00004ed0       win32_read_file_func$rtcName$0 8002bed000000001     iowin32.obj
 0002:00004ee0       win32_read_file_func$rtcVarDesc 8002bee000000001     iowin32.obj
 0002:00004f20       win32_read_file_func$rtcFrameData 8002bf2000000001     iowin32.obj
 0002:00004f30       win32_open_file_func$rtcName$0 8002bf3000000001     iowin32.obj
 0002:00004f40       win32_open_file_func$rtcName$1 8002bf4000000001     iowin32.obj
 0002:00004f58       win32_open_file_func$rtcName$2 8002bf5800000001     iowin32.obj
 0002:00004f68       win32_open_file_func$rtcName$3 8002bf6800000001     iowin32.obj
 0002:00004f80       win32_open_file_func$rtcVarDesc 8002bf8000000001     iowin32.obj
 0002:00005080       win32_open_file_func$rtcFrameData 8002c08000000001     iowin32.obj
 0002:00005090       win32_open64_file_funcW$rtcName$0 8002c09000000001     iowin32.obj
 0002:000050a0       win32_open64_file_funcW$rtcName$1 8002c0a000000001     iowin32.obj
 0002:000050b8       win32_open64_file_funcW$rtcName$2 8002c0b800000001     iowin32.obj
 0002:000050c8       win32_open64_file_funcW$rtcName$3 8002c0c800000001     iowin32.obj
 0002:000050e0       win32_open64_file_funcW$rtcVarDesc 8002c0e000000001     iowin32.obj
 0002:000051e0       win32_open64_file_funcW$rtcFrameData 8002c1e000000001     iowin32.obj
 0002:000051f0       win32_open64_file_funcA$rtcName$0 8002c1f000000001     iowin32.obj
 0002:00005200       win32_open64_file_funcA$rtcName$1 8002c20000000001     iowin32.obj
 0002:00005218       win32_open64_file_funcA$rtcName$2 8002c21800000001     iowin32.obj
 0002:00005228       win32_open64_file_funcA$rtcName$3 8002c22800000001     iowin32.obj
 0002:00005240       win32_open64_file_funcA$rtcVarDesc 8002c24000000001     iowin32.obj
 0002:00005340       win32_open64_file_funcA$rtcFrameData 8002c34000000001     iowin32.obj
 0002:00005350       win32_open64_file_func$rtcName$0 8002c35000000001     iowin32.obj
 0002:00005360       win32_open64_file_func$rtcName$1 8002c36000000001     iowin32.obj
 0002:00005378       win32_open64_file_func$rtcName$2 8002c37800000001     iowin32.obj
 0002:00005388       win32_open64_file_func$rtcName$3 8002c38800000001     iowin32.obj
 0002:000053a0       win32_open64_file_func$rtcVarDesc 8002c3a000000001     iowin32.obj
 0002:000054a0       win32_open64_file_func$rtcFrameData 8002c4a000000001     iowin32.obj
 0002:000054b0       win32_build_iowin$rtcName$0 8002c4b000000001     iowin32.obj
 0002:000054c0       win32_build_iowin$rtcVarDesc 8002c4c000000001     iowin32.obj
 0002:00005500       win32_build_iowin$rtcFrameData 8002c50000000001     iowin32.obj
 0002:00005510       gen_codes$rtcName$0        8002c51000000001     trees.obj
 0002:00005520       gen_codes$rtcVarDesc       8002c52000000001     trees.obj
 0002:00005560       gen_codes$rtcFrameData     8002c56000000001     trees.obj
 0002:00005570       uncompress2$rtcName$0      8002c57000000001     uncompr.obj
 0002:00005578       uncompress2$rtcName$1      8002c57800000001     uncompr.obj
 0002:00005580       uncompress2$rtcVarDesc     8002c58000000001     uncompr.obj
 0002:00005600       uncompress2$rtcFrameData   8002c60000000001     uncompr.obj
 0002:00005610       unzOpenCurrentFile3$rtcName$0 8002c61000000001     unzip.obj
 0002:00005620       unzOpenCurrentFile3$rtcName$1 8002c62000000001     unzip.obj
 0002:00005638       unzOpenCurrentFile3$rtcName$2 8002c63800000001     unzip.obj
 0002:00005650       unzOpenCurrentFile3$rtcVarDesc 8002c65000000001     unzip.obj
 0002:00005710       unzOpenCurrentFile3$rtcFrameData 8002c71000000001     unzip.obj
 0002:00005720       unz64local_CheckCurrentFileCoherencyHeader$rtcName$0 8002c72000000001     unzip.obj
 0002:00005728       unz64local_CheckCurrentFileCoherencyHeader$rtcName$1 8002c72800000001     unzip.obj
 0002:00005730       unz64local_CheckCurrentFileCoherencyHeader$rtcName$2 8002c73000000001     unzip.obj
 0002:00005738       unz64local_CheckCurrentFileCoherencyHeader$rtcName$3 8002c73800000001     unzip.obj
 0002:00005748       unz64local_CheckCurrentFileCoherencyHeader$rtcName$4 8002c74800000001     unzip.obj
 0002:00005760       unz64local_CheckCurrentFileCoherencyHeader$rtcVarDesc 8002c76000000001     unzip.obj
 0002:000058a0       unz64local_CheckCurrentFileCoherencyHeader$rtcFrameData 8002c8a000000001     unzip.obj
 0002:000058b0       unzGoToFilePos$rtcName$0   8002c8b000000001     unzip.obj
 0002:000058c0       unzGoToFilePos$rtcVarDesc  8002c8c000000001     unzip.obj
 0002:00005900       unzGoToFilePos$rtcFrameData 8002c90000000001     unzip.obj
 0002:00005910       unzGetFilePos$rtcName$0    8002c91000000001     unzip.obj
 0002:00005920       unzGetFilePos$rtcVarDesc   8002c92000000001     unzip.obj
 0002:00005960       unzGetFilePos$rtcFrameData 8002c96000000001     unzip.obj
 0002:00005970       unzLocateFile$rtcName$0    8002c97000000001     unzip.obj
 0002:00005988       unzLocateFile$rtcName$1    8002c98800000001     unzip.obj
 0002:000059a8       unzLocateFile$rtcName$2    8002c9a800000001     unzip.obj
 0002:000059c0       unzLocateFile$rtcVarDesc   8002c9c000000001     unzip.obj
 0002:00005a80       unzLocateFile$rtcFrameData 8002ca8000000001     unzip.obj
 0002:00005a90       unzGetCurrentFileInfo$rtcName$0 8002ca9000000001     unzip.obj
 0002:00005aa0       unzGetCurrentFileInfo$rtcVarDesc 8002caa000000001     unzip.obj
 0002:00005ae0       unzGetCurrentFileInfo$rtcFrameData 8002cae000000001     unzip.obj
 0002:00005af0       unz64local_GetCurrentFileInfoInternal$rtcName$0 8002caf000000001     unzip.obj
 0002:00005b00       unz64local_GetCurrentFileInfoInternal$rtcName$1 8002cb0000000001     unzip.obj
 0002:00005b14       unz64local_GetCurrentFileInfoInternal$rtcName$2 8002cb1400000001     unzip.obj
 0002:00005b1c       unz64local_GetCurrentFileInfoInternal$rtcName$3 8002cb1c00000001     unzip.obj
 0002:00005b20       unz64local_GetCurrentFileInfoInternal$rtcName$4 8002cb2000000001     unzip.obj
 0002:00005b2c       unz64local_GetCurrentFileInfoInternal$rtcName$6 8002cb2c00000001     unzip.obj
 0002:00005b30       unz64local_GetCurrentFileInfoInternal$rtcName$5 8002cb3000000001     unzip.obj
 0002:00005b40       unz64local_GetCurrentFileInfoInternal$rtcVarDesc 8002cb4000000001     unzip.obj
 0002:00005d00       unz64local_GetCurrentFileInfoInternal$rtcFrameData 8002cd0000000001     unzip.obj
 0002:00005d10       unzOpen2_64$rtcName$0      8002cd1000000001     unzip.obj
 0002:00005d30       unzOpen2_64$rtcVarDesc     8002cd3000000001     unzip.obj
 0002:00005d70       unzOpen2_64$rtcFrameData   8002cd7000000001     unzip.obj
 0002:00005d80       unzOpen2$rtcName$0         8002cd8000000001     unzip.obj
 0002:00005da0       unzOpen2$rtcVarDesc        8002cda000000001     unzip.obj
 0002:00005de0       unzOpen2$rtcFrameData      8002cde000000001     unzip.obj
 0002:00005df0       unzOpenInternal$rtcName$0  8002cdf000000001     unzip.obj
 0002:00005df4       unzOpenInternal$rtcName$1  8002cdf400000001     unzip.obj
 0002:00005df8       unzOpenInternal$rtcName$2  8002cdf800000001     unzip.obj
 0002:00005e04       unzOpenInternal$rtcName$5  8002ce0400000001     unzip.obj
 0002:00005e08       unzOpenInternal$rtcName$3  8002ce0800000001     unzip.obj
 0002:00005e20       unzOpenInternal$rtcName$4  8002ce2000000001     unzip.obj
 0002:00005e30       unzOpenInternal$rtcName$6  8002ce3000000001     unzip.obj
 0002:00005e38       unzOpenInternal$rtcFrameData 8002ce3800000001     unzip.obj
 0002:00005e50       unzOpenInternal$rtcVarDesc 8002ce5000000001     unzip.obj
 0002:00006010       unz64local_SearchCentralDir64$rtcName$0 8002d01000000001     unzip.obj
 0002:00006018       unz64local_SearchCentralDir64$rtcName$1 8002d01800000001     unzip.obj
 0002:00006030       unz64local_SearchCentralDir64$rtcVarDesc 8002d03000000001     unzip.obj
 0002:000060b0       unz64local_SearchCentralDir64$rtcFrameData 8002d0b000000001     unzip.obj
 0002:000060c0       unz64local_getLong64$rtcName$0 8002d0c000000001     unzip.obj
 0002:000060d0       unz64local_getLong64$rtcVarDesc 8002d0d000000001     unzip.obj
 0002:00006110       unz64local_getLong64$rtcFrameData 8002d11000000001     unzip.obj
 0002:00006120       unz64local_getLong$rtcName$0 8002d12000000001     unzip.obj
 0002:00006130       unz64local_getLong$rtcVarDesc 8002d13000000001     unzip.obj
 0002:00006170       unz64local_getLong$rtcFrameData 8002d17000000001     unzip.obj
 0002:00006180       unz64local_getShort$rtcName$0 8002d18000000001     unzip.obj
 0002:00006190       unz64local_getShort$rtcVarDesc 8002d19000000001     unzip.obj
 0002:000061d0       unz64local_getShort$rtcFrameData 8002d1d000000001     unzip.obj
 0002:000061e0       unz64local_getByte$rtcName$0 8002d1e000000001     unzip.obj
 0002:000061f0       unz64local_getByte$rtcVarDesc 8002d1f000000001     unzip.obj
 0002:00006230       unz64local_getByte$rtcFrameData 8002d23000000001     unzip.obj
 0002:00006240       zipOpenNewFileInZip4_64$rtcName$0 8002d24000000001     zip.obj
 0002:00006250       zipOpenNewFileInZip4_64$rtcVarDesc 8002d25000000001     zip.obj
 0002:00006290       zipOpenNewFileInZip4_64$rtcFrameData 8002d29000000001     zip.obj
 0002:000062a0       zipOpen2_64$rtcName$0      8002d2a000000001     zip.obj
 0002:000062c0       zipOpen2_64$rtcVarDesc     8002d2c000000001     zip.obj
 0002:00006300       zipOpen2_64$rtcFrameData   8002d30000000001     zip.obj
 0002:00006310       zipOpen2$rtcName$0         8002d31000000001     zip.obj
 0002:00006330       zipOpen2$rtcVarDesc        8002d33000000001     zip.obj
 0002:00006370       zipOpen2$rtcFrameData      8002d37000000001     zip.obj
 0002:00006380       zipOpen3$rtcName$0         8002d38000000001     zip.obj
 0002:00006390       zipOpen3$rtcVarDesc        8002d39000000001     zip.obj
 0002:000063d0       zipOpen3$rtcFrameData      8002d3d000000001     zip.obj
 0002:000063e0       LoadCentralDirectoryRecord$rtcName$0 8002d3e000000001     zip.obj
 0002:000063f8       LoadCentralDirectoryRecord$rtcName$1 8002d3f800000001     zip.obj
 0002:0000640c       LoadCentralDirectoryRecord$rtcName$2 8002d40c00000001     zip.obj
 0002:00006410       LoadCentralDirectoryRecord$rtcName$3 8002d41000000001     zip.obj
 0002:00006420       LoadCentralDirectoryRecord$rtcName$4 8002d42000000001     zip.obj
 0002:00006438       LoadCentralDirectoryRecord$rtcName$5 8002d43800000001     zip.obj
 0002:00006448       LoadCentralDirectoryRecord$rtcName$6 8002d44800000001     zip.obj
 0002:00006458       LoadCentralDirectoryRecord$rtcName$7 8002d45800000001     zip.obj
 0002:00006468       LoadCentralDirectoryRecord$rtcName$8 8002d46800000001     zip.obj
 0002:00006478       LoadCentralDirectoryRecord$rtcName$9 8002d47800000001     zip.obj
 0002:00006488       LoadCentralDirectoryRecord$rtcName$10 8002d48800000001     zip.obj
 0002:000064a8       LoadCentralDirectoryRecord$rtcFrameData 8002d4a800000001     zip.obj
 0002:000064c0       LoadCentralDirectoryRecord$rtcVarDesc 8002d4c000000001     zip.obj
 0002:00006780       zip64local_SearchCentralDir64$rtcName$0 8002d78000000001     zip.obj
 0002:00006788       zip64local_SearchCentralDir64$rtcName$1 8002d78800000001     zip.obj
 0002:000067a0       zip64local_SearchCentralDir64$rtcVarDesc 8002d7a000000001     zip.obj
 0002:00006820       zip64local_SearchCentralDir64$rtcFrameData 8002d82000000001     zip.obj
 0002:00006830       zip64local_getLong64$rtcName$0 8002d83000000001     zip.obj
 0002:00006840       zip64local_getLong64$rtcVarDesc 8002d84000000001     zip.obj
 0002:00006880       zip64local_getLong64$rtcFrameData 8002d88000000001     zip.obj
 0002:00006890       zip64local_getLong$rtcName$0 8002d89000000001     zip.obj
 0002:000068a0       zip64local_getLong$rtcVarDesc 8002d8a000000001     zip.obj
 0002:000068e0       zip64local_getLong$rtcFrameData 8002d8e000000001     zip.obj
 0002:000068f0       zip64local_getShort$rtcName$0 8002d8f000000001     zip.obj
 0002:00006900       zip64local_getShort$rtcVarDesc 8002d90000000001     zip.obj
 0002:00006940       zip64local_getShort$rtcFrameData 8002d94000000001     zip.obj
 0002:00006950       zip64local_getByte$rtcName$0 8002d95000000001     zip.obj
 0002:00006960       zip64local_getByte$rtcVarDesc 8002d96000000001     zip.obj
 0002:000069a0       zip64local_getByte$rtcFrameData 8002d9a000000001     zip.obj
 0002:000069b0       zip64local_putValue$rtcName$0 8002d9b000000001     zip.obj
 0002:000069c0       zip64local_putValue$rtcVarDesc 8002d9c000000001     zip.obj
 0002:00006a00       zip64local_putValue$rtcFrameData 8002da0000000001     zip.obj
 0002:00006a10       crypthead$rtcName$0        8002da1000000001     zip.obj
 0002:00006a20       crypthead$rtcVarDesc       8002da2000000001     zip.obj
 0002:00006a60       crypthead$rtcFrameData     8002da6000000001     zip.obj
 0002:00006a70       ?_RTC_ErrorMessages@@3QBQEBDB 8002da7000000001     MSVCRT:error.obj
 0002:00006aa0       ?_RTC_NoFalsePositives@@3QBHB 8002daa000000001     MSVCRT:error.obj
 0002:00006ab8       ?stack_premsg@@3QBDB       8002dab800000001     MSVCRT:error.obj
 0002:00006ad8       ?stack_postmsg@@3QBDB      8002dad800000001     MSVCRT:error.obj
 0002:00006af0       ?uninit_premsg@@3QBDB      8002daf000000001     MSVCRT:error.obj
 0002:00006b00       ?uninit_postmsg@@3QBDB     8002db0000000001     MSVCRT:error.obj
 0002:00007060       ?_RTC_errlist@@3QBQEBDB    8002e06000000001     MSVCRT:userapi.obj
 0002:00007140       ?mspdbName@@3QB_WB         8002e14000000001     MSVCRT:pdblkup.obj
 0002:000072b8       GS_ExceptionPointers       8002e2b800000001     MSVCRT:gs_report.obj
 0002:00007740       $unwind$adler32_z          8002e74000000001     adler32.obj
 0002:00007748       $unwind$adler32            8002e74800000001     adler32.obj
 0002:00007750       $unwind$adler32_combine_   8002e75000000001     adler32.obj
 0002:00007758       $unwind$adler32_combine    8002e75800000001     adler32.obj
 0002:00007760       $unwind$compress2          8002e76000000001     compress.obj
 0002:0000776c       $unwind$compress           8002e76c00000001     compress.obj
 0002:00007774       $unwind$compressBound      8002e77400000001     compress.obj
 0002:0000777c       $unwind$get_crc_table      8002e77c00000001     crc32.obj
 0002:00007784       $unwind$crc32_z            8002e78400000001     crc32.obj
 0002:0000778c       $unwind$crc32              8002e78c00000001     crc32.obj
 0002:00007794       $unwind$crc32_little       8002e79400000001     crc32.obj
 0002:0000779c       $unwind$crc32_big          8002e79c00000001     crc32.obj
 0002:000077a4       $unwind$gf2_matrix_times   8002e7a400000001     crc32.obj
 0002:000077ac       $unwind$gf2_matrix_square  8002e7ac00000001     crc32.obj
 0002:000077b4       $unwind$crc32_combine_     8002e7b400000001     crc32.obj
 0002:000077c0       $unwind$crc32_combine      8002e7c000000001     crc32.obj
 0002:000077c8       $unwind$slide_hash         8002e7c800000001     deflate.obj
 0002:000077d0       $unwind$deflateInit_       8002e7d000000001     deflate.obj
 0002:000077d8       $unwind$deflateInit2_      8002e7d800000001     deflate.obj
 0002:000077e0       $unwind$deflateStateCheck  8002e7e000000001     deflate.obj
 0002:000077e8       $unwind$deflateSetDictionary 8002e7e800000001     deflate.obj
 0002:000077f0       $unwind$deflateGetDictionary 8002e7f000000001     deflate.obj
 0002:000077f8       $unwind$deflateResetKeep   8002e7f800000001     deflate.obj
 0002:00007800       $unwind$deflateReset       8002e80000000001     deflate.obj
 0002:00007808       $unwind$deflateSetHeader   8002e80800000001     deflate.obj
 0002:00007810       $unwind$deflatePending     8002e81000000001     deflate.obj
 0002:00007818       $unwind$deflatePrime       8002e81800000001     deflate.obj
 0002:00007820       $unwind$deflateParams      8002e82000000001     deflate.obj
 0002:00007828       $unwind$deflateTune        8002e82800000001     deflate.obj
 0002:00007830       $unwind$deflateBound       8002e83000000001     deflate.obj
 0002:00007838       $unwind$putShortMSB        8002e83800000001     deflate.obj
 0002:00007840       $unwind$flush_pending      8002e84000000001     deflate.obj
 0002:00007848       $unwind$deflate            8002e84800000001     deflate.obj
 0002:00007854       $unwind$deflateEnd         8002e85400000001     deflate.obj
 0002:0000785c       $unwind$deflateCopy        8002e85c00000001     deflate.obj
 0002:00007864       $unwind$read_buf           8002e86400000001     deflate.obj
 0002:0000786c       $unwind$lm_init            8002e86c00000001     deflate.obj
 0002:00007874       $unwind$fill_window        8002e87400000001     deflate.obj
 0002:0000787c       $unwind$deflate_stored     8002e87c00000001     deflate.obj
 0002:00007884       $unwind$deflate_fast       8002e88400000001     deflate.obj
 0002:00007890       $unwind$deflate_slow       8002e89000000001     deflate.obj
 0002:0000789c       $unwind$deflate_rle        8002e89c00000001     deflate.obj
 0002:000078a4       $unwind$deflate_huff       8002e8a400000001     deflate.obj
 0002:000078ac       $unwind$gzclose            8002e8ac00000001     gzclose.obj
 0002:000078b4       $unwind$__local_stdio_printf_options 8002e8b400000001     gzlib.obj
 0002:000078bc       $unwind$vsnprintf          8002e8bc00000001     gzlib.obj
 0002:000078c4       $unwind$snprintf           8002e8c400000001     gzlib.obj
 0002:000078cc       $unwind$gz_reset           8002e8cc00000001     gzlib.obj
 0002:000078d4       $unwind$gz_open            8002e8d400000001     gzlib.obj
 0002:000078dc       $unwind$gzopen             8002e8dc00000001     gzlib.obj
 0002:000078e4       $unwind$gzdopen            8002e8e400000001     gzlib.obj
 0002:000078ec       $unwind$gzopen_w           8002e8ec00000001     gzlib.obj
 0002:000078f4       $unwind$gzbuffer           8002e8f400000001     gzlib.obj
 0002:000078fc       $unwind$gzrewind           8002e8fc00000001     gzlib.obj
 0002:00007904       $unwind$gzseek64           8002e90400000001     gzlib.obj
 0002:0000790c       $unwind$gzseek             8002e90c00000001     gzlib.obj
 0002:00007914       $unwind$gztell64           8002e91400000001     gzlib.obj
 0002:0000791c       $unwind$gztell             8002e91c00000001     gzlib.obj
 0002:00007924       $unwind$gzoffset64         8002e92400000001     gzlib.obj
 0002:0000792c       $unwind$gzoffset           8002e92c00000001     gzlib.obj
 0002:00007934       $unwind$gzeof              8002e93400000001     gzlib.obj
 0002:0000793c       $unwind$gzerror            8002e93c00000001     gzlib.obj
 0002:00007944       $unwind$gzclearerr         8002e94400000001     gzlib.obj
 0002:0000794c       $unwind$gz_error           8002e94c00000001     gzlib.obj
 0002:00007954       $unwind$gz_load            8002e95400000001     gzread.obj
 0002:0000795c       $unwind$gz_avail           8002e95c00000001     gzread.obj
 0002:00007964       $unwind$gz_look            8002e96400000001     gzread.obj
 0002:0000796c       $unwind$gz_decomp          8002e96c00000001     gzread.obj
 0002:00007974       $unwind$gz_fetch           8002e97400000001     gzread.obj
 0002:0000797c       $unwind$gz_skip            8002e97c00000001     gzread.obj
 0002:00007984       $unwind$gz_read            8002e98400000001     gzread.obj
 0002:0000798c       $unwind$gzread             8002e98c00000001     gzread.obj
 0002:00007994       $unwind$gzfread            8002e99400000001     gzread.obj
 0002:0000799c       $unwind$gzgetc             8002e99c00000001     gzread.obj
 0002:000079a4       $unwind$gzgetc_            8002e9a400000001     gzread.obj
 0002:000079ac       $unwind$gzungetc           8002e9ac00000001     gzread.obj
 0002:000079b4       $unwind$gzgets             8002e9b400000001     gzread.obj
 0002:000079bc       $unwind$gzdirect           8002e9bc00000001     gzread.obj
 0002:000079c4       $unwind$gzclose_r          8002e9c400000001     gzread.obj
 0002:000079cc       $unwind$gz_init            8002e9cc00000001     gzwrite.obj
 0002:000079d4       $unwind$gz_comp            8002e9d400000001     gzwrite.obj
 0002:000079dc       $unwind$gz_zero            8002e9dc00000001     gzwrite.obj
 0002:000079e4       $unwind$gz_write           8002e9e400000001     gzwrite.obj
 0002:000079ec       $unwind$gzwrite            8002e9ec00000001     gzwrite.obj
 0002:000079f4       $unwind$gzfwrite           8002e9f400000001     gzwrite.obj
 0002:000079fc       $unwind$gzputc             8002e9fc00000001     gzwrite.obj
 0002:00007a04       $unwind$gzputs             8002ea0400000001     gzwrite.obj
 0002:00007a0c       $unwind$gzvprintf          8002ea0c00000001     gzwrite.obj
 0002:00007a14       $unwind$gzprintf           8002ea1400000001     gzwrite.obj
 0002:00007a1c       $unwind$gzflush            8002ea1c00000001     gzwrite.obj
 0002:00007a24       $unwind$gzsetparams        8002ea2400000001     gzwrite.obj
 0002:00007a2c       $unwind$gzclose_w          8002ea2c00000001     gzwrite.obj
 0002:00007a34       $unwind$inflateBackInit_   8002ea3400000001     infback.obj
 0002:00007a3c       $unwind$fixedtables        8002ea3c00000001     infback.obj
 0002:00007a44       $unwind$inflateBack        8002ea4400000001     infback.obj
 0002:00007a50       $unwind$inflateBackEnd     8002ea5000000001     infback.obj
 0002:00007a58       $unwind$inflate_fast       8002ea5800000001     inffas8664.obj
 0002:00007a64       $unwind$inflateStateCheck  8002ea6400000001     inflate.obj
 0002:00007a6c       $unwind$inflateResetKeep   8002ea6c00000001     inflate.obj
 0002:00007a74       $unwind$inflateReset       8002ea7400000001     inflate.obj
 0002:00007a7c       $unwind$inflateReset2      8002ea7c00000001     inflate.obj
 0002:00007a84       $unwind$inflateInit2_      8002ea8400000001     inflate.obj
 0002:00007a8c       $unwind$inflateInit_       8002ea8c00000001     inflate.obj
 0002:00007a94       $unwind$inflatePrime       8002ea9400000001     inflate.obj
 0002:00007a9c       $unwind$fixedtables        8002ea9c00000001     inflate.obj
 0002:00007aa4       $unwind$updatewindow       8002eaa400000001     inflate.obj
 0002:00007aac       $unwind$inflate            8002eaac00000001     inflate.obj
 0002:00007ab8       $unwind$inflateEnd         8002eab800000001     inflate.obj
 0002:00007ac0       $unwind$inflateGetDictionary 8002eac000000001     inflate.obj
 0002:00007ac8       $unwind$inflateSetDictionary 8002eac800000001     inflate.obj
 0002:00007ad0       $unwind$inflateGetHeader   8002ead000000001     inflate.obj
 0002:00007ad8       $unwind$syncsearch         8002ead800000001     inflate.obj
 0002:00007ae0       $unwind$inflateSync        8002eae000000001     inflate.obj
 0002:00007ae8       $unwind$inflateSyncPoint   8002eae800000001     inflate.obj
 0002:00007af0       $unwind$inflateCopy        8002eaf000000001     inflate.obj
 0002:00007af8       $unwind$inflateUndermine   8002eaf800000001     inflate.obj
 0002:00007b00       $unwind$inflateValidate    8002eb0000000001     inflate.obj
 0002:00007b08       $unwind$inflateMark        8002eb0800000001     inflate.obj
 0002:00007b10       $unwind$inflateCodesUsed   8002eb1000000001     inflate.obj
 0002:00007b18       $unwind$inflate_table      8002eb1800000001     inftrees.obj
 0002:00007b24       $unwind$call_zopen64       8002eb2400000001     ioapi.obj
 0002:00007b2c       $unwind$call_zseek64       8002eb2c00000001     ioapi.obj
 0002:00007b34       $unwind$call_ztell64       8002eb3400000001     ioapi.obj
 0002:00007b3c       $unwind$fill_zlib_filefunc64_32_def_from_filefunc32 8002eb3c00000001     ioapi.obj
 0002:00007b44       $unwind$fopen_file_func    8002eb4400000001     ioapi.obj
 0002:00007b4c       $unwind$fopen64_file_func  8002eb4c00000001     ioapi.obj
 0002:00007b54       $unwind$fread_file_func    8002eb5400000001     ioapi.obj
 0002:00007b5c       $unwind$fwrite_file_func   8002eb5c00000001     ioapi.obj
 0002:00007b64       $unwind$ftell_file_func    8002eb6400000001     ioapi.obj
 0002:00007b6c       $unwind$ftell64_file_func  8002eb6c00000001     ioapi.obj
 0002:00007b74       $unwind$fseek_file_func    8002eb7400000001     ioapi.obj
 0002:00007b7c       $unwind$fseek64_file_func  8002eb7c00000001     ioapi.obj
 0002:00007b84       $unwind$fclose_file_func   8002eb8400000001     ioapi.obj
 0002:00007b8c       $unwind$ferror_file_func   8002eb8c00000001     ioapi.obj
 0002:00007b94       $unwind$fill_fopen64_filefunc 8002eb9400000001     ioapi.obj
 0002:00007b9c       $unwind$win32_translate_open_mode 8002eb9c00000001     iowin32.obj
 0002:00007ba4       $unwind$win32_build_iowin  8002eba400000001     iowin32.obj
 0002:00007bb0       $unwind$win32_open64_file_func 8002ebb000000001     iowin32.obj
 0002:00007bbc       $unwind$win32_open64_file_funcA 8002ebbc00000001     iowin32.obj
 0002:00007bc8       $unwind$win32_open64_file_funcW 8002ebc800000001     iowin32.obj
 0002:00007bd4       $unwind$win32_open_file_func 8002ebd400000001     iowin32.obj
 0002:00007be0       $unwind$win32_read_file_func 8002ebe000000001     iowin32.obj
 0002:00007be8       $unwind$win32_write_file_func 8002ebe800000001     iowin32.obj
 0002:00007bf0       $unwind$MySetFilePointerEx 8002ebf000000001     iowin32.obj
 0002:00007bf8       $unwind$win32_tell_file_func 8002ebf800000001     iowin32.obj
 0002:00007c00       $unwind$win32_tell64_file_func 8002ec0000000001     iowin32.obj
 0002:00007c08       $unwind$win32_seek_file_func 8002ec0800000001     iowin32.obj
 0002:00007c10       $unwind$win32_seek64_file_func 8002ec1000000001     iowin32.obj
 0002:00007c18       $unwind$win32_close_file_func 8002ec1800000001     iowin32.obj
 0002:00007c20       $unwind$win32_error_file_func 8002ec2000000001     iowin32.obj
 0002:00007c28       $unwind$fill_win32_filefunc 8002ec2800000001     iowin32.obj
 0002:00007c30       $unwind$fill_win32_filefunc64 8002ec3000000001     iowin32.obj
 0002:00007c38       $unwind$fill_win32_filefunc64A 8002ec3800000001     iowin32.obj
 0002:00007c40       $unwind$fill_win32_filefunc64W 8002ec4000000001     iowin32.obj
 0002:00007c48       $unwind$tr_static_init     8002ec4800000001     trees.obj
 0002:00007c50       $unwind$_tr_init           8002ec5000000001     trees.obj
 0002:00007c58       $unwind$init_block         8002ec5800000001     trees.obj
 0002:00007c60       $unwind$pqdownheap         8002ec6000000001     trees.obj
 0002:00007c68       $unwind$gen_bitlen         8002ec6800000001     trees.obj
 0002:00007c70       $unwind$gen_codes          8002ec7000000001     trees.obj
 0002:00007c78       $unwind$build_tree         8002ec7800000001     trees.obj
 0002:00007c80       $unwind$scan_tree          8002ec8000000001     trees.obj
 0002:00007c88       $unwind$send_tree          8002ec8800000001     trees.obj
 0002:00007c90       $unwind$build_bl_tree      8002ec9000000001     trees.obj
 0002:00007c98       $unwind$send_all_trees     8002ec9800000001     trees.obj
 0002:00007ca0       $unwind$_tr_stored_block   8002eca000000001     trees.obj
 0002:00007ca8       $unwind$_tr_flush_bits     8002eca800000001     trees.obj
 0002:00007cb0       $unwind$_tr_align          8002ecb000000001     trees.obj
 0002:00007cb8       $unwind$_tr_flush_block    8002ecb800000001     trees.obj
 0002:00007cc0       $unwind$compress_block     8002ecc000000001     trees.obj
 0002:00007cc8       $unwind$detect_data_type   8002ecc800000001     trees.obj
 0002:00007cd0       $unwind$bi_reverse         8002ecd000000001     trees.obj
 0002:00007cd8       $unwind$bi_flush           8002ecd800000001     trees.obj
 0002:00007ce0       $unwind$bi_windup          8002ece000000001     trees.obj
 0002:00007ce8       $unwind$uncompress2        8002ece800000001     uncompr.obj
 0002:00007cf4       $unwind$uncompress         8002ecf400000001     uncompr.obj
 0002:00007cfc       $unwind$unz64local_getByte 8002ecfc00000001     unzip.obj
 0002:00007d04       $unwind$unz64local_getShort 8002ed0400000001     unzip.obj
 0002:00007d0c       $unwind$unz64local_getLong 8002ed0c00000001     unzip.obj
 0002:00007d14       $unwind$unz64local_getLong64 8002ed1400000001     unzip.obj
 0002:00007d1c       $unwind$strcmpcasenosensitive_internal 8002ed1c00000001     unzip.obj
 0002:00007d24       $unwind$unzStringFileNameCompare 8002ed2400000001     unzip.obj
 0002:00007d2c       $unwind$unz64local_SearchCentralDir 8002ed2c00000001     unzip.obj
 0002:00007d34       $unwind$unz64local_SearchCentralDir64 8002ed3400000001     unzip.obj
 0002:00007d40       $unwind$unzOpenInternal    8002ed4000000001     unzip.obj
 0002:00007d4c       $unwind$unzOpen2           8002ed4c00000001     unzip.obj
 0002:00007d58       $unwind$unzOpen2_64        8002ed5800000001     unzip.obj
 0002:00007d64       $unwind$unzOpen            8002ed6400000001     unzip.obj
 0002:00007d6c       $unwind$unzOpen64          8002ed6c00000001     unzip.obj
 0002:00007d74       $unwind$unzClose           8002ed7400000001     unzip.obj
 0002:00007d7c       $unwind$unzGetGlobalInfo64 8002ed7c00000001     unzip.obj
 0002:00007d88       $unwind$unzGetGlobalInfo   8002ed8800000001     unzip.obj
 0002:00007d90       $unwind$unz64local_DosDateToTmuDate 8002ed9000000001     unzip.obj
 0002:00007d98       $unwind$unz64local_GetCurrentFileInfoInternal 8002ed9800000001     unzip.obj
 0002:00007da4       $unwind$unzGetCurrentFileInfo64 8002eda400000001     unzip.obj
 0002:00007dac       $unwind$unzGetCurrentFileInfo 8002edac00000001     unzip.obj
 0002:00007db8       $unwind$unzGoToFirstFile   8002edb800000001     unzip.obj
 0002:00007dc0       $unwind$unzGoToNextFile    8002edc000000001     unzip.obj
 0002:00007dc8       $unwind$unzLocateFile      8002edc800000001     unzip.obj
 0002:00007dd4       $unwind$unzGetFilePos64    8002edd400000001     unzip.obj
 0002:00007ddc       $unwind$unzGetFilePos      8002eddc00000001     unzip.obj
 0002:00007de4       $unwind$unzGoToFilePos64   8002ede400000001     unzip.obj
 0002:00007dec       $unwind$unzGoToFilePos     8002edec00000001     unzip.obj
 0002:00007df4       $unwind$unz64local_CheckCurrentFileCoherencyHeader 8002edf400000001     unzip.obj
 0002:00007e00       $unwind$unzOpenCurrentFile3 8002ee0000000001     unzip.obj
 0002:00007e0c       $unwind$unzOpenCurrentFile 8002ee0c00000001     unzip.obj
 0002:00007e14       $unwind$unzOpenCurrentFilePassword 8002ee1400000001     unzip.obj
 0002:00007e1c       $unwind$unzOpenCurrentFile2 8002ee1c00000001     unzip.obj
 0002:00007e24       $unwind$unzGetCurrentFileZStreamPos64 8002ee2400000001     unzip.obj
 0002:00007e2c       $unwind$unzReadCurrentFile 8002ee2c00000001     unzip.obj
 0002:00007e34       $unwind$unztell            8002ee3400000001     unzip.obj
 0002:00007e3c       $unwind$unztell64          8002ee3c00000001     unzip.obj
 0002:00007e44       $unwind$unzeof             8002ee4400000001     unzip.obj
 0002:00007e4c       $unwind$unzGetLocalExtrafield 8002ee4c00000001     unzip.obj
 0002:00007e54       $unwind$unzCloseCurrentFile 8002ee5400000001     unzip.obj
 0002:00007e5c       $unwind$unzGetGlobalComment 8002ee5c00000001     unzip.obj
 0002:00007e64       $unwind$time               8002ee6400000001     zip.obj
 0002:00007e6c       $unwind$decrypt_byte       8002ee6c00000001     zip.obj
 0002:00007e74       $unwind$update_keys        8002ee7400000001     zip.obj
 0002:00007e7c       $unwind$init_keys          8002ee7c00000001     zip.obj
 0002:00007e84       $unwind$crypthead          8002ee8400000001     zip.obj
 0002:00007e8c       $unwind$allocate_new_datablock 8002ee8c00000001     zip.obj
 0002:00007e94       $unwind$free_datablock     8002ee9400000001     zip.obj
 0002:00007e9c       $unwind$init_linkedlist    8002ee9c00000001     zip.obj
 0002:00007ea4       $unwind$free_linkedlist    8002eea400000001     zip.obj
 0002:00007eac       $unwind$add_data_in_datablock 8002eeac00000001     zip.obj
 0002:00007eb4       $unwind$zip64local_putValue 8002eeb400000001     zip.obj
 0002:00007ebc       $unwind$zip64local_putValue_inmemory 8002eebc00000001     zip.obj
 0002:00007ec4       $unwind$zip64local_TmzDateToDosDate 8002eec400000001     zip.obj
 0002:00007ecc       $unwind$zip64local_getByte 8002eecc00000001     zip.obj
 0002:00007ed4       $unwind$zip64local_getShort 8002eed400000001     zip.obj
 0002:00007edc       $unwind$zip64local_getLong 8002eedc00000001     zip.obj
 0002:00007ee4       $unwind$zip64local_getLong64 8002eee400000001     zip.obj
 0002:00007eec       $unwind$zip64local_SearchCentralDir 8002eeec00000001     zip.obj
 0002:00007ef4       $unwind$zip64local_SearchCentralDir64 8002eef400000001     zip.obj
 0002:00007f00       $unwind$LoadCentralDirectoryRecord 8002ef0000000001     zip.obj
 0002:00007f0c       $unwind$zipOpen3           8002ef0c00000001     zip.obj
 0002:00007f18       $unwind$zipOpen2           8002ef1800000001     zip.obj
 0002:00007f24       $unwind$zipOpen2_64        8002ef2400000001     zip.obj
 0002:00007f30       $unwind$zipOpen            8002ef3000000001     zip.obj
 0002:00007f38       $unwind$zipOpen64          8002ef3800000001     zip.obj
 0002:00007f40       $unwind$Write_LocalFileHeader 8002ef4000000001     zip.obj
 0002:00007f48       $unwind$zipOpenNewFileInZip4_64 8002ef4800000001     zip.obj
 0002:00007f54       $unwind$zipOpenNewFileInZip3 8002ef5400000001     zip.obj
 0002:00007f60       $unwind$zipOpenNewFileInZip3_64 8002ef6000000001     zip.obj
 0002:00007f6c       $unwind$zipOpenNewFileInZip2 8002ef6c00000001     zip.obj
 0002:00007f78       $unwind$zipOpenNewFileInZip2_64 8002ef7800000001     zip.obj
 0002:00007f84       $unwind$zipOpenNewFileInZip64 8002ef8400000001     zip.obj
 0002:00007f90       $unwind$zipOpenNewFileInZip 8002ef9000000001     zip.obj
 0002:00007f9c       $unwind$zip64FlushWriteBuffer 8002ef9c00000001     zip.obj
 0002:00007fa4       $unwind$zipWriteInFileInZip 8002efa400000001     zip.obj
 0002:00007fac       $unwind$zipCloseFileInZipRaw 8002efac00000001     zip.obj
 0002:00007fb4       $unwind$zipCloseFileInZipRaw64 8002efb400000001     zip.obj
 0002:00007fbc       $unwind$zipCloseFileInZip  8002efbc00000001     zip.obj
 0002:00007fc4       $unwind$Write_Zip64EndOfCentralDirectoryLocator 8002efc400000001     zip.obj
 0002:00007fcc       $unwind$Write_Zip64EndOfCentralDirectoryRecord 8002efcc00000001     zip.obj
 0002:00007fd4       $unwind$Write_EndOfCentralDirectoryRecord 8002efd400000001     zip.obj
 0002:00007fdc       $unwind$Write_GlobalComment 8002efdc00000001     zip.obj
 0002:00007fe4       $unwind$zipClose           8002efe400000001     zip.obj
 0002:00007fec       $unwind$zlibVersion        8002efec00000001     zutil.obj
 0002:00007ff4       $unwind$zlibCompileFlags   8002eff400000001     zutil.obj
 0002:00007ffc       $unwind$zError             8002effc00000001     zutil.obj
 0002:00008004       $unwind$zcalloc            8002f00400000001     zutil.obj
 0002:0000800c       $unwind$zcfree             8002f00c00000001     zutil.obj
 0002:00008014       $unwind$?dllmain_crt_process_attach@@YAHQEAUHINSTANCE__@@QEAX@Z 8002f01400000001     MSVCRT:dll_dllmain.obj
 0002:00008050       $unwind$?fin$0@?0??dllmain_crt_process_attach@@YAHQEAUHINSTANCE__@@QEAX@Z@4HA 8002f05000000001     MSVCRT:dll_dllmain.obj
 0002:00008058       $unwind$?dllmain_crt_process_detach@@YAH_N@Z 8002f05800000001     MSVCRT:dll_dllmain.obj
 0002:0000808c       $unwind$?fin$0@?0??dllmain_crt_process_detach@@YAH_N@Z@4HA 8002f08c00000001     MSVCRT:dll_dllmain.obj
 0002:00008094       $unwind$?dllmain_crt_dispatch@@YAHQEAUHINSTANCE__@@KQEAX@Z 8002f09400000001     MSVCRT:dll_dllmain.obj
 0002:0000809c       $unwind$?dllmain_dispatch@@YAHQEAUHINSTANCE__@@KQEAX@Z 8002f09c00000001     MSVCRT:dll_dllmain.obj
 0002:000080c4       $unwind$?filt$0@?0??dllmain_dispatch@@YAHQEAUHINSTANCE__@@KQEAX@Z@4HA 8002f0c400000001     MSVCRT:dll_dllmain.obj
 0002:000080cc       $unwind$_DllMainCRTStartup 8002f0cc00000001     MSVCRT:dll_dllmain.obj
 0002:000080dc       $unwind$__security_init_cookie 8002f0dc00000001     MSVCRT:gs_support.obj
 0002:000080e8       $unwind$__get_entropy      8002f0e800000001     MSVCRT:gs_support.obj
 0002:000080f0       $unwind$DllMain            8002f0f000000001     MSVCRT:dll_dllmain_stub.obj
 0002:000080f8       $unwind$__scrt_initialize_default_local_stdio_options 8002f0f800000001     MSVCRT:default_local_stdio_options.obj
 0002:00008100       $unwind$atexit             8002f10000000001     MSVCRT:utility.obj
 0002:00008108       $unwind$_onexit            8002f10800000001     MSVCRT:utility.obj
 0002:00008110       $unwind$__scrt_is_nonwritable_in_current_image 8002f11000000001     MSVCRT:utility.obj
 0002:00008130       $unwind$__scrt_is_nonwritable_in_current_image$filt$0 8002f13000000001     MSVCRT:utility.obj
 0002:00008138       $unwind$__scrt_acquire_startup_lock 8002f13800000001     MSVCRT:utility.obj
 0002:00008140       $unwind$__scrt_release_startup_lock 8002f14000000001     MSVCRT:utility.obj
 0002:00008148       $unwind$__scrt_initialize_crt 8002f14800000001     MSVCRT:utility.obj
 0002:00008150       $unwind$__scrt_uninitialize_crt 8002f15000000001     MSVCRT:utility.obj
 0002:00008158       $unwind$__scrt_initialize_onexit_tables 8002f15800000001     MSVCRT:utility.obj
 0002:00008160       $unwind$__scrt_dllmain_exception_filter 8002f16000000001     MSVCRT:utility.obj
 0002:00008174       $unwind$__scrt_dllmain_before_initialize_c 8002f17400000001     MSVCRT:utility.obj
 0002:0000817c       $unwind$__scrt_dllmain_after_initialize_c 8002f17c00000001     MSVCRT:utility.obj
 0002:00008184       $unwind$__scrt_dllmain_uninitialize_c 8002f18400000001     MSVCRT:utility.obj
 0002:0000818c       $unwind$__scrt_dllmain_uninitialize_critical 8002f18c00000001     MSVCRT:utility.obj
 0002:00008194       $unwind$__scrt_dllmain_crt_thread_attach 8002f19400000001     MSVCRT:utility.obj
 0002:0000819c       $unwind$__scrt_dllmain_crt_thread_detach 8002f19c00000001     MSVCRT:utility.obj
 0002:000081a4       $unwind$?configure_argv@__scrt_narrow_argv_policy@@SAHXZ 8002f1a400000001     MSVCRT:utility.obj
 0002:000081ac       $unwind$__scrt_get_show_window_mode 8002f1ac00000001     MSVCRT:utility_desktop.obj
 0002:000081b4       $unwind$__scrt_is_managed_app 8002f1b400000001     MSVCRT:utility_desktop.obj
 0002:000081bc       $unwind$__scrt_fastfail    8002f1bc00000001     MSVCRT:utility_desktop.obj
 0002:000081cc       $unwind$__scrt_unhandled_exception_filter 8002f1cc00000001     MSVCRT:utility_desktop.obj
 0002:000081d4       $unwind$_RTC_Initialize    8002f1d400000001     MSVCRT:initsect.obj
 0002:000081e0       $unwind$_RTC_Terminate     8002f1e000000001     MSVCRT:initsect.obj
 0002:000081ec       $unwind$__isa_available_init 8002f1ec00000001     MSVCRT:cpu_disp.obj
 0002:00008200       $xdatasym                  8002f20000000001     MSVCRT:guard_dispatch.obj
 0002:00008204       $unwind$_RTC_CheckStackVars 8002f20400000001     MSVCRT:stack.obj
 0002:00008218       $unwind$_RTC_CheckStackVars2 8002f21800000001     MSVCRT:stack.obj
 0002:00008230       $unwind$_RTC_AllocaHelper  8002f23000000001     MSVCRT:stack.obj
 0002:00008238       $unwind$__CheckForDebuggerJustMyCode 8002f23800000001     MSVCRT:debugger_jmc.obj
 0002:00008240       $xdatasym                  8002f24000000001     MSVCRT:chkstk.obj
 0002:00008248       $unwind$_RTC_UninitUse     8002f24800000001     MSVCRT:error.obj
 0002:00008264       $unwind$?_RTC_Failure@@YAXPEAXH@Z 8002f26400000001     MSVCRT:error.obj
 0002:0000826c       $unwind$?_RTC_StackFailure@@YAXPEAXPEBD@Z 8002f26c00000001     MSVCRT:error.obj
 0002:00008288       $unwind$?_RTC_AllocaFailure@@YAXPEAXPEAU_RTC_ALLOCA_NODE@@H@Z 8002f28800000001     MSVCRT:error.obj
 0002:000082ac       $unwind$_vsprintf_s_l      8002f2ac00000001     MSVCRT:error.obj
 0002:000082c0       $unwind$sprintf_s          8002f2c000000001     MSVCRT:error.obj
 0002:000082d0       $unwind$?notify_debugger@@YAXAEBUtagEXCEPTION_VISUALCPP_DEBUG_INFO@@@Z 8002f2d000000001     MSVCRT:error.obj
 0002:000082f0       $unwind$?filt$0@?0??notify_debugger@@YAXAEBUtagEXCEPTION_VISUALCPP_DEBUG_INFO@@@Z@4HA 8002f2f000000001     MSVCRT:error.obj
 0002:000082f8       $unwind$?DebuggerProbe@@YA_NK@Z 8002f2f800000001     MSVCRT:error.obj
 0002:00008300       $unwind$?DebuggerRuntime@@YA_NKHPEAXPEB_W@Z 8002f30000000001     MSVCRT:error.obj
 0002:00008308       $unwind$?failwithmessage@@YAXPEAXHHPEBD@Z 8002f30800000001     MSVCRT:error.obj
 0002:00008328       $unwind$?_getMemBlockDataString@@YAXPEAD0PEBD_K@Z 8002f32800000001     MSVCRT:error.obj
 0002:00008344       $unwind$?_RTC_GetSrcLine@@YAHPEAEPEA_WKPEAH1K@Z 8002f34400000001     MSVCRT:pdblkup.obj
 0002:0000835c       $unwind$?GetPdbDllFromInstallPath@@YAPEAUHINSTANCE__@@XZ 8002f35c00000001     MSVCRT:pdblkup.obj
 0002:00008380       $unwind$?GetPdbDll@@YAPEAUHINSTANCE__@@XZ 8002f38000000001     MSVCRT:pdblkup.obj
 0002:00008388       $unwind$__GSHandlerCheckCommon 8002f38800000001     MSVCRT:gshandler.obj
 0002:00008390       $unwind$__GSHandlerCheck   8002f39000000001     MSVCRT:gshandler.obj
 0002:00008398       $xdatasym                  8002f39800000001     MSVCRT:amdsecgs.obj
 0002:0000839c       $unwind$__report_securityfailure 8002f39c00000001     MSVCRT:gs_report.obj
 0002:000083a4       $unwind$__report_securityfailureEx 8002f3a400000001     MSVCRT:gs_report.obj
 0002:000083ac       $unwind$__report_rangecheckfailure 8002f3ac00000001     MSVCRT:gs_report.obj
 0002:000083b4       $unwind$__report_gsfailure 8002f3b400000001     MSVCRT:gs_report.obj
 0002:000083bc       $unwind$capture_current_context 8002f3bc00000001     MSVCRT:gs_report.obj
 0002:000083c8       $unwind$capture_previous_context 8002f3c800000001     MSVCRT:gs_report.obj
 0002:000083d4       $unwind$__raise_securityfailure 8002f3d400000001     MSVCRT:gs_report.obj
 0002:000083e0       .edata                     8002f3e000000001     zlibwapi.exp
 0002:00008408       rgpv                       8002f40800000001     zlibwapi.exp
 0002:000086c4       rgszName                   8002f6c400000001     zlibwapi.exp
 0002:000088c8       rgwOrd                     8002f8c800000001     zlibwapi.exp
 0002:000089ca       szName                     8002f9ca00000001     zlibwapi.exp
 0002:000089d7       $N00001                    8002f9d700000001     zlibwapi.exp
 0002:000089df       $N00140                    8002f9df00000001     zlibwapi.exp
 0002:000089ef       $N00174                    8002f9ef00000001     zlibwapi.exp
 0002:000089f9       $N00002                    8002f9f900000001     zlibwapi.exp
 0002:00008a02       $N00039                    8002fa0200000001     zlibwapi.exp
 0002:00008a0c       $N00046                    8002fa0c00000001     zlibwapi.exp
 0002:00008a1a       $N00003                    8002fa1a00000001     zlibwapi.exp
 0002:00008a20       $N00142                    8002fa2000000001     zlibwapi.exp
 0002:00008a2e       $N00175                    8002fa2e00000001     zlibwapi.exp
 0002:00008a36       $N00004                    8002fa3600000001     zlibwapi.exp
 0002:00008a3e       $N00047                    8002fa3e00000001     zlibwapi.exp
 0002:00008a4b       $N00005                    8002fa4b00000001     zlibwapi.exp
 0002:00008a57       $N00006                    8002fa5700000001     zlibwapi.exp
 0002:00008a62       $N00173                    8002fa6200000001     zlibwapi.exp
 0002:00008a77       $N00007                    8002fa7700000001     zlibwapi.exp
 0002:00008a85       $N00008                    8002fa8500000001     zlibwapi.exp
 0002:00008a92       $N00009                    8002fa9200000001     zlibwapi.exp
 0002:00008aa0       $N00052                    8002faa000000001     zlibwapi.exp
 0002:00008aaf       $N00051                    8002faaf00000001     zlibwapi.exp
 0002:00008abc       $N00010                    8002fabc00000001     zlibwapi.exp
 0002:00008ac9       $N00164                    8002fac900000001     zlibwapi.exp
 0002:00008ada       $N00011                    8002fada00000001     zlibwapi.exp
 0002:00008aef       $N00144                    8002faef00000001     zlibwapi.exp
 0002:00008b00       $N00145                    8002fb0000000001     zlibwapi.exp
 0002:00008b0c       $N00110                    8002fb0c00000001     zlibwapi.exp
 0002:00008b20       $N00111                    8002fb2000000001     zlibwapi.exp
 0002:00008b36       $N00112                    8002fb3600000001     zlibwapi.exp
 0002:00008b4d       $N00113                    8002fb4d00000001     zlibwapi.exp
 0002:00008b64       $N00038                    8002fb6400000001     zlibwapi.exp
 0002:00008b72       $N00146                    8002fb7200000001     zlibwapi.exp
 0002:00008b7b       $N00048                    8002fb7b00000001     zlibwapi.exp
 0002:00008b86       $N00012                    8002fb8600000001     zlibwapi.exp
 0002:00008b8e       $N00147                    8002fb8e00000001     zlibwapi.exp
 0002:00008b98       $N00148                    8002fb9800000001     zlibwapi.exp
 0002:00008ba2       $N00149                    8002fba200000001     zlibwapi.exp
 0002:00008bab       $N00013                    8002fbab00000001     zlibwapi.exp
 0002:00008bb3       $N00034                    8002fbb300000001     zlibwapi.exp
 0002:00008bb9       $N00014                    8002fbb900000001     zlibwapi.exp
 0002:00008bc1       $N00015                    8002fbc100000001     zlibwapi.exp
 0002:00008bc9       $N00171                    8002fbc900000001     zlibwapi.exp
 0002:00008bd1       $N00172                    8002fbd100000001     zlibwapi.exp
 0002:00008bda       $N00030                    8002fbda00000001     zlibwapi.exp
 0002:00008be1       $N00161                    8002fbe100000001     zlibwapi.exp
 0002:00008be9       $N00041                    8002fbe900000001     zlibwapi.exp
 0002:00008bf0       $N00150                    8002fbf000000001     zlibwapi.exp
 0002:00008bf9       $N00016                    8002fbf900000001     zlibwapi.exp
 0002:00008c00       $N00165                    8002fc0000000001     zlibwapi.exp
 0002:00008c09       $N00028                    8002fc0900000001     zlibwapi.exp
 0002:00008c12       $N00029                    8002fc1200000001     zlibwapi.exp
 0002:00008c19       $N00040                    8002fc1900000001     zlibwapi.exp
 0002:00008c20       $N00017                    8002fc2000000001     zlibwapi.exp
 0002:00008c27       $N00032                    8002fc2700000001     zlibwapi.exp
 0002:00008c30       $N00031                    8002fc3000000001     zlibwapi.exp
 0002:00008c37       $N00035                    8002fc3700000001     zlibwapi.exp
 0002:00008c43       $N00033                    8002fc4300000001     zlibwapi.exp
 0002:00008c4a       $N00049                    8002fc4a00000001     zlibwapi.exp
 0002:00008c53       $N00167                    8002fc5300000001     zlibwapi.exp
 0002:00008c5d       $N00018                    8002fc5d00000001     zlibwapi.exp
 0002:00008c65       $N00019                    8002fc6500000001     zlibwapi.exp
 0002:00008c6d       $N00044                    8002fc6d00000001     zlibwapi.exp
 0002:00008c79       $N00045                    8002fc7900000001     zlibwapi.exp
 0002:00008c88       $N00043                    8002fc8800000001     zlibwapi.exp
 0002:00008c99       $N00168                    8002fc9900000001     zlibwapi.exp
 0002:00008caa       $N00042                    8002fcaa00000001     zlibwapi.exp
 0002:00008cb6       $N00020                    8002fcb600000001     zlibwapi.exp
 0002:00008cc1       $N00166                    8002fcc100000001     zlibwapi.exp
 0002:00008cd6       $N00156                    8002fcd600000001     zlibwapi.exp
 0002:00008ce7       $N00021                    8002fce700000001     zlibwapi.exp
 0002:00008cf5       $N00022                    8002fcf500000001     zlibwapi.exp
 0002:00008d02       $N00157                    8002fd0200000001     zlibwapi.exp
 0002:00008d0e       $N00158                    8002fd0e00000001     zlibwapi.exp
 0002:00008d1b       $N00023                    8002fd1b00000001     zlibwapi.exp
 0002:00008d28       $N00159                    8002fd2800000001     zlibwapi.exp
 0002:00008d36       $N00163                    8002fd3600000001     zlibwapi.exp
 0002:00008d47       $N00024                    8002fd4700000001     zlibwapi.exp
 0002:00008d5c       $N00025                    8002fd5c00000001     zlibwapi.exp
 0002:00008d68       $N00037                    8002fd6800000001     zlibwapi.exp
 0002:00008d79       $N00160                    8002fd7900000001     zlibwapi.exp
 0002:00008d8a       $N00169                    8002fd8a00000001     zlibwapi.exp
 0002:00008d9a       $N00026                    8002fd9a00000001     zlibwapi.exp
 0002:00008da5       $N00170                    8002fda500000001     zlibwapi.exp
 0002:00008db1       $N00062                    8002fdb100000001     zlibwapi.exp
 0002:00008dba       $N00072                    8002fdba00000001     zlibwapi.exp
 0002:00008dce       $N00064                    8002fdce00000001     zlibwapi.exp
 0002:00008de4       $N00124                    8002fde400000001     zlibwapi.exp
 0002:00008dfc       $N00125                    8002fdfc00000001     zlibwapi.exp
 0002:00008e1a       $N00100                    8002fe1a00000001     zlibwapi.exp
 0002:00008e28       $N00127                    8002fe2800000001     zlibwapi.exp
 0002:00008e38       $N00073                    8002fe3800000001     zlibwapi.exp
 0002:00008e4c       $N00063                    8002fe4c00000001     zlibwapi.exp
 0002:00008e5d       $N00122                    8002fe5d00000001     zlibwapi.exp
 0002:00008e70       $N00076                    8002fe7000000001     zlibwapi.exp
 0002:00008e86       $N00101                    8002fe8600000001     zlibwapi.exp
 0002:00008e95       $N00128                    8002fe9500000001     zlibwapi.exp
 0002:00008ea6       $N00065                    8002fea600000001     zlibwapi.exp
 0002:00008eb7       $N00066                    8002feb700000001     zlibwapi.exp
 0002:00008ec7       $N00075                    8002fec700000001     zlibwapi.exp
 0002:00008ed5       $N00061                    8002fed500000001     zlibwapi.exp
 0002:00008edd       $N00077                    8002fedd00000001     zlibwapi.exp
 0002:00008ee6       $N00121                    8002fee600000001     zlibwapi.exp
 0002:00008ef2       $N00120                    8002fef200000001     zlibwapi.exp
 0002:00008efc       $N00067                    8002fefc00000001     zlibwapi.exp
 0002:00008f0f       $N00078                    8002ff0f00000001     zlibwapi.exp
 0002:00008f23       $N00069                    8002ff2300000001     zlibwapi.exp
 0002:00008f37       $N00079                    8002ff3700000001     zlibwapi.exp
 0002:00008f52       $N00068                    8002ff5200000001     zlibwapi.exp
 0002:00008f65       $N00074                    8002ff6500000001     zlibwapi.exp
 0002:00008f7e       $N00071                    8002ff7e00000001     zlibwapi.exp
 0002:00008f85       $N00070                    8002ff8500000001     zlibwapi.exp
 0002:00008f8d       $N00126                    8002ff8d00000001     zlibwapi.exp
 0002:00008f97       $N00036                    8002ff9700000001     zlibwapi.exp
 0002:00008f9e       $N00084                    8002ff9e00000001     zlibwapi.exp
 0002:00008fa7       $N00083                    8002ffa700000001     zlibwapi.exp
 0002:00008fb9       $N00087                    8002ffb900000001     zlibwapi.exp
 0002:00008fce       $N00136                    8002ffce00000001     zlibwapi.exp
 0002:00008fe5       $N00080                    8002ffe500000001     zlibwapi.exp
 0002:00008fed       $N00088                    8002ffed00000001     zlibwapi.exp
 0002:00008ff6       $N00131                    8002fff600000001     zlibwapi.exp
 0002:00009002       $N00130                    8003000200000001     zlibwapi.exp
 0002:0000900c       $N00081                    8003000c00000001     zlibwapi.exp
 0002:00009020       $N00086                    8003002000000001     zlibwapi.exp
 0002:00009035       $N00133                    8003003500000001     zlibwapi.exp
 0002:0000904d       $N00089                    8003004d00000001     zlibwapi.exp
 0002:00009062       $N00134                    8003006200000001     zlibwapi.exp
 0002:0000907a       $N00135                    8003007a00000001     zlibwapi.exp
 0002:00009092       $N00132                    8003009200000001     zlibwapi.exp
 0002:000090a8       $N00082                    800300a800000001     zlibwapi.exp
 0002:000090bc       $N00050                    800300bc00000001     zlibwapi.exp
 0002:000090cd       $N00027                    800300cd00000001     zlibwapi.exp
 0002:000094e4       .idata$6                   800304e400000001     kernel32:KERNEL32.dll
 0002:00009548       .idata$6                   8003054800000001     vcruntime:VCRUNTIME140.dll
 0002:00009758       .idata$6                   8003075800000001     ucrt:api-ms-win-crt-stdio-l1-1-0.dll
 0002:00009778       .idata$6                   8003077800000001     ucrt:api-ms-win-crt-convert-l1-1-0.dll
 0002:0000979a       .idata$6                   8003079a00000001     ucrt:api-ms-win-crt-string-l1-1-0.dll
 0002:000097bc       .idata$6                   800307bc00000001     ucrt:api-ms-win-crt-heap-l1-1-0.dll
 0002:000097dc       .idata$6                   800307dc00000001     ucrt:api-ms-win-crt-runtime-l1-1-0.dll
 0002:000097fe       .idata$6                   800307fe00000001     ucrt:api-ms-win-crt-utility-l1-1-0.dll
 0002:00009820       .idata$6                   8003082000000001     ucrt:api-ms-win-crt-time-l1-1-0.dll
 0003:00000060       ?__proc_attached@@3HA      8003106000000001     MSVCRT:dll_dllmain.obj
 0003:000000a0       ?is_initialized_as_dll@@3_NA 800310a000000001     MSVCRT:utility.obj
 0003:000000a1       ?module_local_atexit_table_initialized@@3_NA 800310a100000001     MSVCRT:utility.obj
 0003:000000a8       ?module_local_atexit_table@@3U_onexit_table_t@@A 800310a800000001     MSVCRT:utility.obj
 0003:000000c0       ?module_local_at_quick_exit_table@@3U_onexit_table_t@@A 800310c000000001     MSVCRT:utility.obj
 0003:000000e0       ?calls@?1??crypthead@@9@9  800310e000000001     zip.obj
 0003:000000e8       ?_RTC_ErrorReportFunc@@3P6AHHPEBDH00ZZEA 800310e800000001     MSVCRT:userapi.obj
 0003:000000f0       ?_RTC_ErrorReportFuncW@@3P6AHHPEB_WH00ZZEA 800310f000000001     MSVCRT:userapi.obj
 0003:000000f8       ?mspdb@@3PEAUHINSTANCE__@@EA 800310f800000001     MSVCRT:pdblkup.obj
 0003:00000100       ?alreadyTried@?1??GetPdbDll@@YAPEAUHINSTANCE__@@XZ@4_NA 8003110000000001     MSVCRT:pdblkup.obj
 0003:00000101       ?PDBOK@?1??_RTC_GetSrcLine@@YAHPEAEPEA_WKPEAH1K@Z@4_NA 8003110100000001     MSVCRT:pdblkup.obj
 0003:00000110       GS_ExceptionRecord         8003111000000001     MSVCRT:gs_report.obj
 0003:000001b0       GS_ContextRecord           800311b000000001     MSVCRT:gs_report.obj
 0004:00000000       $pdata$?dllmain_crt_process_attach@@YAHQEAUHINSTANCE__@@QEAX@Z 8003200000000001     MSVCRT:dll_dllmain.obj
 0004:0000000c       $pdata$?fin$0@?0??dllmain_crt_process_attach@@YAHQEAUHINSTANCE__@@QEAX@Z@4HA 8003200c00000001     MSVCRT:dll_dllmain.obj
 0004:00000018       $pdata$?dllmain_crt_process_detach@@YAH_N@Z 8003201800000001     MSVCRT:dll_dllmain.obj
 0004:00000024       $pdata$?fin$0@?0??dllmain_crt_process_detach@@YAH_N@Z@4HA 8003202400000001     MSVCRT:dll_dllmain.obj
 0004:00000030       $pdata$?dllmain_crt_dispatch@@YAHQEAUHINSTANCE__@@KQEAX@Z 8003203000000001     MSVCRT:dll_dllmain.obj
 0004:0000003c       $pdata$?dllmain_dispatch@@YAHQEAUHINSTANCE__@@KQEAX@Z 8003203c00000001     MSVCRT:dll_dllmain.obj
 0004:00000048       $pdata$?filt$0@?0??dllmain_dispatch@@YAHQEAUHINSTANCE__@@KQEAX@Z@4HA 8003204800000001     MSVCRT:dll_dllmain.obj
 0004:00000054       $pdata$_DllMainCRTStartup  8003205400000001     MSVCRT:dll_dllmain.obj
 0004:00000060       $pdata$__security_init_cookie 8003206000000001     MSVCRT:gs_support.obj
 0004:0000006c       $pdata$__get_entropy       8003206c00000001     MSVCRT:gs_support.obj
 0004:00000078       $pdata$DllMain             8003207800000001     MSVCRT:dll_dllmain_stub.obj
 0004:00000084       $pdata$__scrt_initialize_default_local_stdio_options 8003208400000001     MSVCRT:default_local_stdio_options.obj
 0004:00000090       $pdata$atexit              8003209000000001     MSVCRT:utility.obj
 0004:0000009c       $pdata$_onexit             8003209c00000001     MSVCRT:utility.obj
 0004:000000a8       $pdata$__scrt_is_nonwritable_in_current_image 800320a800000001     MSVCRT:utility.obj
 0004:000000b4       $pdata$__scrt_is_nonwritable_in_current_image$filt$0 800320b400000001     MSVCRT:utility.obj
 0004:000000c0       $pdata$__scrt_acquire_startup_lock 800320c000000001     MSVCRT:utility.obj
 0004:000000cc       $pdata$__scrt_release_startup_lock 800320cc00000001     MSVCRT:utility.obj
 0004:000000d8       $pdata$__scrt_initialize_crt 800320d800000001     MSVCRT:utility.obj
 0004:000000e4       $pdata$__scrt_uninitialize_crt 800320e400000001     MSVCRT:utility.obj
 0004:000000f0       $pdata$__scrt_initialize_onexit_tables 800320f000000001     MSVCRT:utility.obj
 0004:000000fc       $pdata$__scrt_dllmain_exception_filter 800320fc00000001     MSVCRT:utility.obj
 0004:00000108       $pdata$__scrt_dllmain_before_initialize_c 8003210800000001     MSVCRT:utility.obj
 0004:00000114       $pdata$__scrt_dllmain_after_initialize_c 8003211400000001     MSVCRT:utility.obj
 0004:00000120       $pdata$__scrt_dllmain_uninitialize_c 8003212000000001     MSVCRT:utility.obj
 0004:0000012c       $pdata$__scrt_dllmain_uninitialize_critical 8003212c00000001     MSVCRT:utility.obj
 0004:00000138       $pdata$__scrt_dllmain_crt_thread_attach 8003213800000001     MSVCRT:utility.obj
 0004:00000144       $pdata$__scrt_dllmain_crt_thread_detach 8003214400000001     MSVCRT:utility.obj
 0004:00000150       $pdata$?configure_argv@__scrt_narrow_argv_policy@@SAHXZ 8003215000000001     MSVCRT:utility.obj
 0004:0000015c       $pdata$__scrt_get_show_window_mode 8003215c00000001     MSVCRT:utility_desktop.obj
 0004:00000168       $pdata$__scrt_is_managed_app 8003216800000001     MSVCRT:utility_desktop.obj
 0004:00000174       $pdata$__scrt_fastfail     8003217400000001     MSVCRT:utility_desktop.obj
 0004:00000180       $pdata$__scrt_unhandled_exception_filter 8003218000000001     MSVCRT:utility_desktop.obj
 0004:0000018c       $pdata$_RTC_Initialize     8003218c00000001     MSVCRT:initsect.obj
 0004:00000198       $pdata$_RTC_Terminate      8003219800000001     MSVCRT:initsect.obj
 0004:000001a4       $pdata$__isa_available_init 800321a400000001     MSVCRT:cpu_disp.obj
 0004:000001bc       $pdata$adler32_combine     800321bc00000001     adler32.obj
 0004:000001c8       $pdata$adler32_combine_    800321c800000001     adler32.obj
 0004:000001d4       $pdata$adler32             800321d400000001     adler32.obj
 0004:000001e0       $pdata$adler32_z           800321e000000001     adler32.obj
 0004:000001ec       $pdata$compressBound       800321ec00000001     compress.obj
 0004:000001f8       $pdata$compress            800321f800000001     compress.obj
 0004:00000204       $pdata$compress2           8003220400000001     compress.obj
 0004:00000210       $pdata$crc32_combine       8003221000000001     crc32.obj
 0004:0000021c       $pdata$crc32_combine_      8003221c00000001     crc32.obj
 0004:00000228       $pdata$gf2_matrix_square   8003222800000001     crc32.obj
 0004:00000234       $pdata$gf2_matrix_times    8003223400000001     crc32.obj
 0004:00000240       $pdata$crc32_big           8003224000000001     crc32.obj
 0004:0000024c       $pdata$crc32_little        8003224c00000001     crc32.obj
 0004:00000258       $pdata$crc32               8003225800000001     crc32.obj
 0004:00000264       $pdata$crc32_z             8003226400000001     crc32.obj
 0004:00000270       $pdata$get_crc_table       8003227000000001     crc32.obj
 0004:0000027c       $pdata$deflate_huff        8003227c00000001     deflate.obj
 0004:00000288       $pdata$deflate_rle         8003228800000001     deflate.obj
 0004:00000294       $pdata$deflate_slow        8003229400000001     deflate.obj
 0004:000002a0       $pdata$deflate_fast        800322a000000001     deflate.obj
 0004:000002ac       $pdata$deflate_stored      800322ac00000001     deflate.obj
 0004:000002b8       $pdata$fill_window         800322b800000001     deflate.obj
 0004:000002c4       $pdata$lm_init             800322c400000001     deflate.obj
 0004:000002d0       $pdata$read_buf            800322d000000001     deflate.obj
 0004:000002dc       $pdata$deflateCopy         800322dc00000001     deflate.obj
 0004:000002e8       $pdata$flush_pending       800322e800000001     deflate.obj
 0004:000002f4       $pdata$putShortMSB         800322f400000001     deflate.obj
 0004:00000300       $pdata$deflateBound        8003230000000001     deflate.obj
 0004:0000030c       $pdata$deflateTune         8003230c00000001     deflate.obj
 0004:00000318       $pdata$deflateParams       8003231800000001     deflate.obj
 0004:00000324       $pdata$deflatePrime        8003232400000001     deflate.obj
 0004:00000330       $pdata$deflatePending      8003233000000001     deflate.obj
 0004:0000033c       $pdata$deflateSetHeader    8003233c00000001     deflate.obj
 0004:00000348       $pdata$deflateReset        8003234800000001     deflate.obj
 0004:00000354       $pdata$deflateResetKeep    8003235400000001     deflate.obj
 0004:00000360       $pdata$deflateGetDictionary 8003236000000001     deflate.obj
 0004:0000036c       $pdata$deflateSetDictionary 8003236c00000001     deflate.obj
 0004:00000378       $pdata$deflateStateCheck   8003237800000001     deflate.obj
 0004:00000384       $pdata$deflateInit2_       8003238400000001     deflate.obj
 0004:00000390       $pdata$slide_hash          8003239000000001     deflate.obj
 0004:0000039c       $pdata$deflateInit_        8003239c00000001     deflate.obj
 0004:000003a8       $pdata$deflateEnd          800323a800000001     deflate.obj
 0004:000003b4       $pdata$deflate             800323b400000001     deflate.obj
 0004:000003c0       $pdata$gzclose             800323c000000001     gzclose.obj
 0004:000003cc       $pdata$gz_error            800323cc00000001     gzlib.obj
 0004:000003d8       $pdata$gzclearerr          800323d800000001     gzlib.obj
 0004:000003e4       $pdata$gzerror             800323e400000001     gzlib.obj
 0004:000003f0       $pdata$gzeof               800323f000000001     gzlib.obj
 0004:000003fc       $pdata$gzoffset            800323fc00000001     gzlib.obj
 0004:00000408       $pdata$gzoffset64          8003240800000001     gzlib.obj
 0004:00000414       $pdata$gztell              8003241400000001     gzlib.obj
 0004:00000420       $pdata$gztell64            8003242000000001     gzlib.obj
 0004:0000042c       $pdata$gzseek              8003242c00000001     gzlib.obj
 0004:00000438       $pdata$gzseek64            8003243800000001     gzlib.obj
 0004:00000444       $pdata$gzrewind            8003244400000001     gzlib.obj
 0004:00000450       $pdata$gzbuffer            8003245000000001     gzlib.obj
 0004:0000045c       $pdata$gzopen_w            8003245c00000001     gzlib.obj
 0004:00000468       $pdata$gzdopen             8003246800000001     gzlib.obj
 0004:00000474       $pdata$gzopen              8003247400000001     gzlib.obj
 0004:00000480       $pdata$gz_open             8003248000000001     gzlib.obj
 0004:0000048c       $pdata$gz_reset            8003248c00000001     gzlib.obj
 0004:00000498       $pdata$snprintf            8003249800000001     gzlib.obj
 0004:000004a4       $pdata$vsnprintf           800324a400000001     gzlib.obj
 0004:000004b0       $pdata$__local_stdio_printf_options 800324b000000001     gzlib.obj
 0004:000004bc       $pdata$gzdirect            800324bc00000001     gzread.obj
 0004:000004c8       $pdata$gzgets              800324c800000001     gzread.obj
 0004:000004d4       $pdata$gzungetc            800324d400000001     gzread.obj
 0004:000004e0       $pdata$gzgetc_             800324e000000001     gzread.obj
 0004:000004ec       $pdata$gzgetc              800324ec00000001     gzread.obj
 0004:000004f8       $pdata$gzfread             800324f800000001     gzread.obj
 0004:00000504       $pdata$gzread              8003250400000001     gzread.obj
 0004:00000510       $pdata$gz_read             8003251000000001     gzread.obj
 0004:0000051c       $pdata$gz_skip             8003251c00000001     gzread.obj
 0004:00000528       $pdata$gz_fetch            8003252800000001     gzread.obj
 0004:00000534       $pdata$gz_decomp           8003253400000001     gzread.obj
 0004:00000540       $pdata$gz_look             8003254000000001     gzread.obj
 0004:0000054c       $pdata$gz_avail            8003254c00000001     gzread.obj
 0004:00000558       $pdata$gz_load             8003255800000001     gzread.obj
 0004:00000564       $pdata$gzclose_r           8003256400000001     gzread.obj
 0004:00000570       $pdata$gzsetparams         8003257000000001     gzwrite.obj
 0004:0000057c       $pdata$gzflush             8003257c00000001     gzwrite.obj
 0004:00000588       $pdata$gzprintf            8003258800000001     gzwrite.obj
 0004:00000594       $pdata$gzvprintf           8003259400000001     gzwrite.obj
 0004:000005a0       $pdata$gzputs              800325a000000001     gzwrite.obj
 0004:000005ac       $pdata$gzputc              800325ac00000001     gzwrite.obj
 0004:000005b8       $pdata$gzfwrite            800325b800000001     gzwrite.obj
 0004:000005c4       $pdata$gzwrite             800325c400000001     gzwrite.obj
 0004:000005d0       $pdata$gz_write            800325d000000001     gzwrite.obj
 0004:000005dc       $pdata$gz_zero             800325dc00000001     gzwrite.obj
 0004:000005e8       $pdata$gz_comp             800325e800000001     gzwrite.obj
 0004:000005f4       $pdata$gz_init             800325f400000001     gzwrite.obj
 0004:00000600       $pdata$gzclose_w           8003260000000001     gzwrite.obj
 0004:0000060c       $pdata$inflateBackEnd      8003260c00000001     infback.obj
 0004:00000618       $pdata$inflateBack         8003261800000001     infback.obj
 0004:00000624       $pdata$fixedtables         8003262400000001     infback.obj
 0004:00000630       $pdata$inflateBackInit_    8003263000000001     infback.obj
 0004:0000063c       $pdata$inflate_fast        8003263c00000001     inffas8664.obj
 0004:00000648       $pdata$inflateCodesUsed    8003264800000001     inflate.obj
 0004:00000654       $pdata$inflateMark         8003265400000001     inflate.obj
 0004:00000660       $pdata$inflateValidate     8003266000000001     inflate.obj
 0004:0000066c       $pdata$inflateUndermine    8003266c00000001     inflate.obj
 0004:00000678       $pdata$inflateCopy         8003267800000001     inflate.obj
 0004:00000684       $pdata$inflateSyncPoint    8003268400000001     inflate.obj
 0004:00000690       $pdata$inflateSync         8003269000000001     inflate.obj
 0004:0000069c       $pdata$syncsearch          8003269c00000001     inflate.obj
 0004:000006a8       $pdata$inflateGetHeader    800326a800000001     inflate.obj
 0004:000006b4       $pdata$inflateSetDictionary 800326b400000001     inflate.obj
 0004:000006c0       $pdata$inflateGetDictionary 800326c000000001     inflate.obj
 0004:000006cc       $pdata$updatewindow        800326cc00000001     inflate.obj
 0004:000006d8       $pdata$fixedtables         800326d800000001     inflate.obj
 0004:000006e4       $pdata$inflatePrime        800326e400000001     inflate.obj
 0004:000006f0       $pdata$inflateInit_        800326f000000001     inflate.obj
 0004:000006fc       $pdata$inflateReset2       800326fc00000001     inflate.obj
 0004:00000708       $pdata$inflateResetKeep    8003270800000001     inflate.obj
 0004:00000714       $pdata$inflateStateCheck   8003271400000001     inflate.obj
 0004:00000720       $pdata$inflateEnd          8003272000000001     inflate.obj
 0004:0000072c       $pdata$inflate             8003272c00000001     inflate.obj
 0004:00000738       $pdata$inflateInit2_       8003273800000001     inflate.obj
 0004:00000744       $pdata$inflateReset        8003274400000001     inflate.obj
 0004:00000750       $pdata$inflate_table       8003275000000001     inftrees.obj
 0004:0000075c       $pdata$fill_fopen64_filefunc 8003275c00000001     ioapi.obj
 0004:00000768       $pdata$ferror_file_func    8003276800000001     ioapi.obj
 0004:00000774       $pdata$fclose_file_func    8003277400000001     ioapi.obj
 0004:00000780       $pdata$fseek64_file_func   8003278000000001     ioapi.obj
 0004:0000078c       $pdata$fseek_file_func     8003278c00000001     ioapi.obj
 0004:00000798       $pdata$ftell64_file_func   8003279800000001     ioapi.obj
 0004:000007a4       $pdata$ftell_file_func     800327a400000001     ioapi.obj
 0004:000007b0       $pdata$fwrite_file_func    800327b000000001     ioapi.obj
 0004:000007bc       $pdata$fread_file_func     800327bc00000001     ioapi.obj
 0004:000007c8       $pdata$fopen64_file_func   800327c800000001     ioapi.obj
 0004:000007d4       $pdata$fopen_file_func     800327d400000001     ioapi.obj
 0004:000007e0       $pdata$fill_zlib_filefunc64_32_def_from_filefunc32 800327e000000001     ioapi.obj
 0004:000007ec       $pdata$call_ztell64        800327ec00000001     ioapi.obj
 0004:000007f8       $pdata$call_zseek64        800327f800000001     ioapi.obj
 0004:00000804       $pdata$call_zopen64        8003280400000001     ioapi.obj
 0004:00000810       $pdata$fill_win32_filefunc64W 8003281000000001     iowin32.obj
 0004:0000081c       $pdata$fill_win32_filefunc64A 8003281c00000001     iowin32.obj
 0004:00000828       $pdata$fill_win32_filefunc64 8003282800000001     iowin32.obj
 0004:00000834       $pdata$fill_win32_filefunc 8003283400000001     iowin32.obj
 0004:00000840       $pdata$win32_error_file_func 8003284000000001     iowin32.obj
 0004:0000084c       $pdata$win32_close_file_func 8003284c00000001     iowin32.obj
 0004:00000858       $pdata$win32_seek64_file_func 8003285800000001     iowin32.obj
 0004:00000864       $pdata$win32_seek_file_func 8003286400000001     iowin32.obj
 0004:00000870       $pdata$win32_tell64_file_func 8003287000000001     iowin32.obj
 0004:0000087c       $pdata$win32_tell_file_func 8003287c00000001     iowin32.obj
 0004:00000888       $pdata$MySetFilePointerEx  8003288800000001     iowin32.obj
 0004:00000894       $pdata$win32_write_file_func 8003289400000001     iowin32.obj
 0004:000008a0       $pdata$win32_read_file_func 800328a000000001     iowin32.obj
 0004:000008ac       $pdata$win32_open_file_func 800328ac00000001     iowin32.obj
 0004:000008b8       $pdata$win32_open64_file_funcW 800328b800000001     iowin32.obj
 0004:000008c4       $pdata$win32_open64_file_funcA 800328c400000001     iowin32.obj
 0004:000008d0       $pdata$win32_open64_file_func 800328d000000001     iowin32.obj
 0004:000008dc       $pdata$win32_build_iowin   800328dc00000001     iowin32.obj
 0004:000008e8       $pdata$win32_translate_open_mode 800328e800000001     iowin32.obj
 0004:000008f4       $pdata$bi_windup           800328f400000001     trees.obj
 0004:00000900       $pdata$bi_flush            8003290000000001     trees.obj
 0004:0000090c       $pdata$bi_reverse          8003290c00000001     trees.obj
 0004:00000918       $pdata$detect_data_type    8003291800000001     trees.obj
 0004:00000924       $pdata$compress_block      8003292400000001     trees.obj
 0004:00000930       $pdata$send_all_trees      8003293000000001     trees.obj
 0004:0000093c       $pdata$build_bl_tree       8003293c00000001     trees.obj
 0004:00000948       $pdata$send_tree           8003294800000001     trees.obj
 0004:00000954       $pdata$scan_tree           8003295400000001     trees.obj
 0004:00000960       $pdata$build_tree          8003296000000001     trees.obj
 0004:0000096c       $pdata$gen_codes           8003296c00000001     trees.obj
 0004:00000978       $pdata$gen_bitlen          8003297800000001     trees.obj
 0004:00000984       $pdata$pqdownheap          8003298400000001     trees.obj
 0004:00000990       $pdata$init_block          8003299000000001     trees.obj
 0004:0000099c       $pdata$tr_static_init      8003299c00000001     trees.obj
 0004:000009a8       $pdata$_tr_align           800329a800000001     trees.obj
 0004:000009b4       $pdata$_tr_init            800329b400000001     trees.obj
 0004:000009c0       $pdata$_tr_flush_block     800329c000000001     trees.obj
 0004:000009cc       $pdata$_tr_flush_bits      800329cc00000001     trees.obj
 0004:000009d8       $pdata$_tr_stored_block    800329d800000001     trees.obj
 0004:000009e4       $pdata$uncompress          800329e400000001     uncompr.obj
 0004:000009f0       $pdata$uncompress2         800329f000000001     uncompr.obj
 0004:000009fc       $pdata$unzGetGlobalComment 800329fc00000001     unzip.obj
 0004:00000a08       $pdata$unzCloseCurrentFile 80032a0800000001     unzip.obj
 0004:00000a14       $pdata$unzGetLocalExtrafield 80032a1400000001     unzip.obj
 0004:00000a20       $pdata$unzeof              80032a2000000001     unzip.obj
 0004:00000a2c       $pdata$unztell64           80032a2c00000001     unzip.obj
 0004:00000a38       $pdata$unztell             80032a3800000001     unzip.obj
 0004:00000a44       $pdata$unzReadCurrentFile  80032a4400000001     unzip.obj
 0004:00000a50       $pdata$unzGetCurrentFileZStreamPos64 80032a5000000001     unzip.obj
 0004:00000a5c       $pdata$unzOpenCurrentFile2 80032a5c00000001     unzip.obj
 0004:00000a68       $pdata$unzOpenCurrentFilePassword 80032a6800000001     unzip.obj
 0004:00000a74       $pdata$unzOpenCurrentFile  80032a7400000001     unzip.obj
 0004:00000a80       $pdata$unzOpenCurrentFile3 80032a8000000001     unzip.obj
 0004:00000a8c       $pdata$unz64local_CheckCurrentFileCoherencyHeader 80032a8c00000001     unzip.obj
 0004:00000a98       $pdata$unzGoToFilePos      80032a9800000001     unzip.obj
 0004:00000aa4       $pdata$unzGoToFilePos64    80032aa400000001     unzip.obj
 0004:00000ab0       $pdata$unzGetFilePos       80032ab000000001     unzip.obj
 0004:00000abc       $pdata$unzGetFilePos64     80032abc00000001     unzip.obj
 0004:00000ac8       $pdata$unzLocateFile       80032ac800000001     unzip.obj
 0004:00000ad4       $pdata$unzGoToNextFile     80032ad400000001     unzip.obj
 0004:00000ae0       $pdata$unzGoToFirstFile    80032ae000000001     unzip.obj
 0004:00000aec       $pdata$unzGetCurrentFileInfo 80032aec00000001     unzip.obj
 0004:00000af8       $pdata$unzGetCurrentFileInfo64 80032af800000001     unzip.obj
 0004:00000b04       $pdata$unz64local_GetCurrentFileInfoInternal 80032b0400000001     unzip.obj
 0004:00000b10       $pdata$unz64local_DosDateToTmuDate 80032b1000000001     unzip.obj
 0004:00000b1c       $pdata$unzGetGlobalInfo    80032b1c00000001     unzip.obj
 0004:00000b28       $pdata$unzGetGlobalInfo64  80032b2800000001     unzip.obj
 0004:00000b34       $pdata$unzClose            80032b3400000001     unzip.obj
 0004:00000b40       $pdata$unzOpen64           80032b4000000001     unzip.obj
 0004:00000b4c       $pdata$unzOpen             80032b4c00000001     unzip.obj
 0004:00000b58       $pdata$unzOpen2_64         80032b5800000001     unzip.obj
 0004:00000b64       $pdata$unzOpen2            80032b6400000001     unzip.obj
 0004:00000b70       $pdata$unzOpenInternal     80032b7000000001     unzip.obj
 0004:00000b7c       $pdata$unz64local_SearchCentralDir64 80032b7c00000001     unzip.obj
 0004:00000b88       $pdata$unz64local_SearchCentralDir 80032b8800000001     unzip.obj
 0004:00000b94       $pdata$unzStringFileNameCompare 80032b9400000001     unzip.obj
 0004:00000ba0       $pdata$strcmpcasenosensitive_internal 80032ba000000001     unzip.obj
 0004:00000bac       $pdata$unz64local_getLong64 80032bac00000001     unzip.obj
 0004:00000bb8       $pdata$unz64local_getLong  80032bb800000001     unzip.obj
 0004:00000bc4       $pdata$unz64local_getShort 80032bc400000001     unzip.obj
 0004:00000bd0       $pdata$unz64local_getByte  80032bd000000001     unzip.obj
 0004:00000bdc       $pdata$zipClose            80032bdc00000001     zip.obj
 0004:00000be8       $pdata$Write_GlobalComment 80032be800000001     zip.obj
 0004:00000bf4       $pdata$Write_EndOfCentralDirectoryRecord 80032bf400000001     zip.obj
 0004:00000c00       $pdata$Write_Zip64EndOfCentralDirectoryRecord 80032c0000000001     zip.obj
 0004:00000c0c       $pdata$Write_Zip64EndOfCentralDirectoryLocator 80032c0c00000001     zip.obj
 0004:00000c18       $pdata$zipCloseFileInZip   80032c1800000001     zip.obj
 0004:00000c24       $pdata$zipCloseFileInZipRaw64 80032c2400000001     zip.obj
 0004:00000c30       $pdata$zipCloseFileInZipRaw 80032c3000000001     zip.obj
 0004:00000c3c       $pdata$zipWriteInFileInZip 80032c3c00000001     zip.obj
 0004:00000c48       $pdata$zip64FlushWriteBuffer 80032c4800000001     zip.obj
 0004:00000c54       $pdata$zipOpenNewFileInZip 80032c5400000001     zip.obj
 0004:00000c60       $pdata$zipOpenNewFileInZip64 80032c6000000001     zip.obj
 0004:00000c6c       $pdata$zipOpenNewFileInZip2_64 80032c6c00000001     zip.obj
 0004:00000c78       $pdata$zipOpenNewFileInZip2 80032c7800000001     zip.obj
 0004:00000c84       $pdata$zipOpenNewFileInZip3_64 80032c8400000001     zip.obj
 0004:00000c90       $pdata$zipOpenNewFileInZip3 80032c9000000001     zip.obj
 0004:00000c9c       $pdata$zipOpenNewFileInZip4_64 80032c9c00000001     zip.obj
 0004:00000ca8       $pdata$Write_LocalFileHeader 80032ca800000001     zip.obj
 0004:00000cb4       $pdata$zipOpen64           80032cb400000001     zip.obj
 0004:00000cc0       $pdata$zipOpen             80032cc000000001     zip.obj
 0004:00000ccc       $pdata$zipOpen2_64         80032ccc00000001     zip.obj
 0004:00000cd8       $pdata$zipOpen2            80032cd800000001     zip.obj
 0004:00000ce4       $pdata$zipOpen3            80032ce400000001     zip.obj
 0004:00000cf0       $pdata$LoadCentralDirectoryRecord 80032cf000000001     zip.obj
 0004:00000cfc       $pdata$zip64local_SearchCentralDir64 80032cfc00000001     zip.obj
 0004:00000d08       $pdata$zip64local_SearchCentralDir 80032d0800000001     zip.obj
 0004:00000d14       $pdata$zip64local_getLong64 80032d1400000001     zip.obj
 0004:00000d20       $pdata$zip64local_getLong  80032d2000000001     zip.obj
 0004:00000d2c       $pdata$zip64local_getShort 80032d2c00000001     zip.obj
 0004:00000d38       $pdata$zip64local_getByte  80032d3800000001     zip.obj
 0004:00000d44       $pdata$zip64local_TmzDateToDosDate 80032d4400000001     zip.obj
 0004:00000d50       $pdata$zip64local_putValue_inmemory 80032d5000000001     zip.obj
 0004:00000d5c       $pdata$zip64local_putValue 80032d5c00000001     zip.obj
 0004:00000d68       $pdata$add_data_in_datablock 80032d6800000001     zip.obj
 0004:00000d74       $pdata$free_linkedlist     80032d7400000001     zip.obj
 0004:00000d80       $pdata$init_linkedlist     80032d8000000001     zip.obj
 0004:00000d8c       $pdata$free_datablock      80032d8c00000001     zip.obj
 0004:00000d98       $pdata$allocate_new_datablock 80032d9800000001     zip.obj
 0004:00000da4       $pdata$crypthead           80032da400000001     zip.obj
 0004:00000db0       $pdata$init_keys           80032db000000001     zip.obj
 0004:00000dbc       $pdata$update_keys         80032dbc00000001     zip.obj
 0004:00000dc8       $pdata$decrypt_byte        80032dc800000001     zip.obj
 0004:00000dd4       $pdata$time                80032dd400000001     zip.obj
 0004:00000de0       $pdata$zError              80032de000000001     zutil.obj
 0004:00000dec       $pdata$zlibCompileFlags    80032dec00000001     zutil.obj
 0004:00000df8       $pdata$zlibVersion         80032df800000001     zutil.obj
 0004:00000e04       $pdata$zcfree              80032e0400000001     zutil.obj
 0004:00000e10       $pdata$zcalloc             80032e1000000001     zutil.obj
 0004:00000e1c       $pdata$_RTC_CheckStackVars 80032e1c00000001     MSVCRT:stack.obj
 0004:00000e28       $pdata$_RTC_CheckStackVars2 80032e2800000001     MSVCRT:stack.obj
 0004:00000e34       $pdata$_RTC_AllocaHelper   80032e3400000001     MSVCRT:stack.obj
 0004:00000e40       $pdata$__CheckForDebuggerJustMyCode 80032e4000000001     MSVCRT:debugger_jmc.obj
 0004:00000e58       $pdata$_RTC_UninitUse      80032e5800000001     MSVCRT:error.obj
 0004:00000e64       $pdata$?_RTC_Failure@@YAXPEAXH@Z 80032e6400000001     MSVCRT:error.obj
 0004:00000e70       $pdata$?_RTC_StackFailure@@YAXPEAXPEBD@Z 80032e7000000001     MSVCRT:error.obj
 0004:00000e7c       $pdata$?_RTC_AllocaFailure@@YAXPEAXPEAU_RTC_ALLOCA_NODE@@H@Z 80032e7c00000001     MSVCRT:error.obj
 0004:00000e88       $pdata$_vsprintf_s_l       80032e8800000001     MSVCRT:error.obj
 0004:00000e94       $pdata$sprintf_s           80032e9400000001     MSVCRT:error.obj
 0004:00000ea0       $pdata$?notify_debugger@@YAXAEBUtagEXCEPTION_VISUALCPP_DEBUG_INFO@@@Z 80032ea000000001     MSVCRT:error.obj
 0004:00000eac       $pdata$?filt$0@?0??notify_debugger@@YAXAEBUtagEXCEPTION_VISUALCPP_DEBUG_INFO@@@Z@4HA 80032eac00000001     MSVCRT:error.obj
 0004:00000eb8       $pdata$?DebuggerProbe@@YA_NK@Z 80032eb800000001     MSVCRT:error.obj
 0004:00000ec4       $pdata$?DebuggerRuntime@@YA_NKHPEAXPEB_W@Z 80032ec400000001     MSVCRT:error.obj
 0004:00000ed0       $pdata$?failwithmessage@@YAXPEAXHHPEBD@Z 80032ed000000001     MSVCRT:error.obj
 0004:00000edc       $pdata$?_getMemBlockDataString@@YAXPEAD0PEBD_K@Z 80032edc00000001     MSVCRT:error.obj
 0004:00000ee8       $pdata$?_RTC_GetSrcLine@@YAHPEAEPEA_WKPEAH1K@Z 80032ee800000001     MSVCRT:pdblkup.obj
 0004:00000ef4       $pdata$?GetPdbDllFromInstallPath@@YAPEAUHINSTANCE__@@XZ 80032ef400000001     MSVCRT:pdblkup.obj
 0004:00000f00       $pdata$?GetPdbDll@@YAPEAUHINSTANCE__@@XZ 80032f0000000001     MSVCRT:pdblkup.obj
 0004:00000f0c       $pdata$__GSHandlerCheckCommon 80032f0c00000001     MSVCRT:gshandler.obj
 0004:00000f18       $pdata$__GSHandlerCheck    80032f1800000001     MSVCRT:gshandler.obj
 0004:00000f30       $pdata$__report_securityfailure 80032f3000000001     MSVCRT:gs_report.obj
 0004:00000f3c       $pdata$__report_securityfailureEx 80032f3c00000001     MSVCRT:gs_report.obj
 0004:00000f48       $pdata$__report_rangecheckfailure 80032f4800000001     MSVCRT:gs_report.obj
 0004:00000f54       $pdata$__report_gsfailure  80032f5400000001     MSVCRT:gs_report.obj
 0004:00000f60       $pdata$capture_current_context 80032f6000000001     MSVCRT:gs_report.obj
 0004:00000f6c       $pdata$capture_previous_context 80032f6c00000001     MSVCRT:gs_report.obj
 0004:00000f78       $pdata$__raise_securityfailure 80032f7800000001     MSVCRT:gs_report.obj
 0005:00000000       __95347B96_ctype@h         8003300000000001     adler32.obj
 0005:00000001       __149DB6BE_basetsd@h       8003300100000001     adler32.obj
 0005:00000002       __9CFFAB73_corecrt_memcpy_s@h 8003300200000001     adler32.obj
 0005:00000003       __55B7CB8D_corecrt_wstring@h 8003300300000001     adler32.obj
 0005:00000004       __2F7506B6_string@h        8003300400000001     adler32.obj
 0005:00000005       __5BA8817F_winnt@h         8003300500000001     adler32.obj
 0005:00000006       __8421AFE7_processthreadsapi@h 8003300600000001     adler32.obj
 0005:00000007       __F192E00B_memoryapi@h     8003300700000001     adler32.obj
 0005:00000008       __0DF854E2_winerror@h      8003300800000001     adler32.obj
 0005:00000009       __940BF1C4_winbase@h       8003300900000001     adler32.obj
 0005:0000000a       __78A3E64A_stralign@h      8003300a00000001     adler32.obj
 0005:0000000b       __ABDB54D7_adler32@c       8003300b00000001     adler32.obj
 0005:0000000c       __95347B96_ctype@h         8003300c00000001     compress.obj
 0005:0000000d       __149DB6BE_basetsd@h       8003300d00000001     compress.obj
 0005:0000000e       __9CFFAB73_corecrt_memcpy_s@h 8003300e00000001     compress.obj
 0005:0000000f       __55B7CB8D_corecrt_wstring@h 8003300f00000001     compress.obj
 0005:00000010       __2F7506B6_string@h        8003301000000001     compress.obj
 0005:00000011       __5BA8817F_winnt@h         8003301100000001     compress.obj
 0005:00000012       __8421AFE7_processthreadsapi@h 8003301200000001     compress.obj
 0005:00000013       __F192E00B_memoryapi@h     8003301300000001     compress.obj
 0005:00000014       __0DF854E2_winerror@h      8003301400000001     compress.obj
 0005:00000015       __940BF1C4_winbase@h       8003301500000001     compress.obj
 0005:00000016       __78A3E64A_stralign@h      8003301600000001     compress.obj
 0005:00000017       __0603D84E_compress@c      8003301700000001     compress.obj
 0005:00000018       __95347B96_ctype@h         8003301800000001     crc32.obj
 0005:00000019       __149DB6BE_basetsd@h       8003301900000001     crc32.obj
 0005:0000001a       __9CFFAB73_corecrt_memcpy_s@h 8003301a00000001     crc32.obj
 0005:0000001b       __55B7CB8D_corecrt_wstring@h 8003301b00000001     crc32.obj
 0005:0000001c       __2F7506B6_string@h        8003301c00000001     crc32.obj
 0005:0000001d       __5BA8817F_winnt@h         8003301d00000001     crc32.obj
 0005:0000001e       __8421AFE7_processthreadsapi@h 8003301e00000001     crc32.obj
 0005:0000001f       __F192E00B_memoryapi@h     8003301f00000001     crc32.obj
 0005:00000020       __0DF854E2_winerror@h      8003302000000001     crc32.obj
 0005:00000021       __940BF1C4_winbase@h       8003302100000001     crc32.obj
 0005:00000022       __78A3E64A_stralign@h      8003302200000001     crc32.obj
 0005:00000023       __D49CDC1E_crc32@c         8003302300000001     crc32.obj
 0005:00000024       __95347B96_ctype@h         8003302400000001     deflate.obj
 0005:00000025       __149DB6BE_basetsd@h       8003302500000001     deflate.obj
 0005:00000026       __9CFFAB73_corecrt_memcpy_s@h 8003302600000001     deflate.obj
 0005:00000027       __55B7CB8D_corecrt_wstring@h 8003302700000001     deflate.obj
 0005:00000028       __2F7506B6_string@h        8003302800000001     deflate.obj
 0005:00000029       __5BA8817F_winnt@h         8003302900000001     deflate.obj
 0005:0000002a       __8421AFE7_processthreadsapi@h 8003302a00000001     deflate.obj
 0005:0000002b       __F192E00B_memoryapi@h     8003302b00000001     deflate.obj
 0005:0000002c       __0DF854E2_winerror@h      8003302c00000001     deflate.obj
 0005:0000002d       __940BF1C4_winbase@h       8003302d00000001     deflate.obj
 0005:0000002e       __78A3E64A_stralign@h      8003302e00000001     deflate.obj
 0005:0000002f       __E6E9AA63_deflate@c       8003302f00000001     deflate.obj
 0005:00000030       __DB664BEB_corecrt_stdio_config@h 8003303000000001     gzclose.obj
 0005:00000031       __E28BBA23_corecrt_wstdio@h 8003303100000001     gzclose.obj
 0005:00000032       __4A1C29A8_stdio@h         8003303200000001     gzclose.obj
 0005:00000033       __95347B96_ctype@h         8003303300000001     gzclose.obj
 0005:00000034       __149DB6BE_basetsd@h       8003303400000001     gzclose.obj
 0005:00000035       __9CFFAB73_corecrt_memcpy_s@h 8003303500000001     gzclose.obj
 0005:00000036       __55B7CB8D_corecrt_wstring@h 8003303600000001     gzclose.obj
 0005:00000037       __2F7506B6_string@h        8003303700000001     gzclose.obj
 0005:00000038       __5BA8817F_winnt@h         8003303800000001     gzclose.obj
 0005:00000039       __8421AFE7_processthreadsapi@h 8003303900000001     gzclose.obj
 0005:0000003a       __F192E00B_memoryapi@h     8003303a00000001     gzclose.obj
 0005:0000003b       __0DF854E2_winerror@h      8003303b00000001     gzclose.obj
 0005:0000003c       __940BF1C4_winbase@h       8003303c00000001     gzclose.obj
 0005:0000003d       __78A3E64A_stralign@h      8003303d00000001     gzclose.obj
 0005:0000003e       __0A201C5E_gzclose@c       8003303e00000001     gzclose.obj
 0005:0000003f       __DB664BEB_corecrt_stdio_config@h 8003303f00000001     gzlib.obj
 0005:00000040       __E28BBA23_corecrt_wstdio@h 8003304000000001     gzlib.obj
 0005:00000041       __4A1C29A8_stdio@h         8003304100000001     gzlib.obj
 0005:00000042       __95347B96_ctype@h         8003304200000001     gzlib.obj
 0005:00000043       __149DB6BE_basetsd@h       8003304300000001     gzlib.obj
 0005:00000044       __9CFFAB73_corecrt_memcpy_s@h 8003304400000001     gzlib.obj
 0005:00000045       __55B7CB8D_corecrt_wstring@h 8003304500000001     gzlib.obj
 0005:00000046       __2F7506B6_string@h        8003304600000001     gzlib.obj
 0005:00000047       __5BA8817F_winnt@h         8003304700000001     gzlib.obj
 0005:00000048       __8421AFE7_processthreadsapi@h 8003304800000001     gzlib.obj
 0005:00000049       __F192E00B_memoryapi@h     8003304900000001     gzlib.obj
 0005:0000004a       __0DF854E2_winerror@h      8003304a00000001     gzlib.obj
 0005:0000004b       __940BF1C4_winbase@h       8003304b00000001     gzlib.obj
 0005:0000004c       __78A3E64A_stralign@h      8003304c00000001     gzlib.obj
 0005:0000004d       __86DC2CC7_gzlib@c         8003304d00000001     gzlib.obj
 0005:0000004e       __DB664BEB_corecrt_stdio_config@h 8003304e00000001     gzread.obj
 0005:0000004f       __E28BBA23_corecrt_wstdio@h 8003304f00000001     gzread.obj
 0005:00000050       __4A1C29A8_stdio@h         8003305000000001     gzread.obj
 0005:00000051       __95347B96_ctype@h         8003305100000001     gzread.obj
 0005:00000052       __149DB6BE_basetsd@h       8003305200000001     gzread.obj
 0005:00000053       __9CFFAB73_corecrt_memcpy_s@h 8003305300000001     gzread.obj
 0005:00000054       __55B7CB8D_corecrt_wstring@h 8003305400000001     gzread.obj
 0005:00000055       __2F7506B6_string@h        8003305500000001     gzread.obj
 0005:00000056       __5BA8817F_winnt@h         8003305600000001     gzread.obj
 0005:00000057       __8421AFE7_processthreadsapi@h 8003305700000001     gzread.obj
 0005:00000058       __F192E00B_memoryapi@h     8003305800000001     gzread.obj
 0005:00000059       __0DF854E2_winerror@h      8003305900000001     gzread.obj
 0005:0000005a       __940BF1C4_winbase@h       8003305a00000001     gzread.obj
 0005:0000005b       __78A3E64A_stralign@h      8003305b00000001     gzread.obj
 0005:0000005c       __077EA387_gzread@c        8003305c00000001     gzread.obj
 0005:0000005d       __DB664BEB_corecrt_stdio_config@h 8003305d00000001     gzwrite.obj
 0005:0000005e       __E28BBA23_corecrt_wstdio@h 8003305e00000001     gzwrite.obj
 0005:0000005f       __4A1C29A8_stdio@h         8003305f00000001     gzwrite.obj
 0005:00000060       __95347B96_ctype@h         8003306000000001     gzwrite.obj
 0005:00000061       __149DB6BE_basetsd@h       8003306100000001     gzwrite.obj
 0005:00000062       __9CFFAB73_corecrt_memcpy_s@h 8003306200000001     gzwrite.obj
 0005:00000063       __55B7CB8D_corecrt_wstring@h 8003306300000001     gzwrite.obj
 0005:00000064       __2F7506B6_string@h        8003306400000001     gzwrite.obj
 0005:00000065       __5BA8817F_winnt@h         8003306500000001     gzwrite.obj
 0005:00000066       __8421AFE7_processthreadsapi@h 8003306600000001     gzwrite.obj
 0005:00000067       __F192E00B_memoryapi@h     8003306700000001     gzwrite.obj
 0005:00000068       __0DF854E2_winerror@h      8003306800000001     gzwrite.obj
 0005:00000069       __940BF1C4_winbase@h       8003306900000001     gzwrite.obj
 0005:0000006a       __78A3E64A_stralign@h      8003306a00000001     gzwrite.obj
 0005:0000006b       __B2FA0A71_gzwrite@c       8003306b00000001     gzwrite.obj
 0005:0000006c       __95347B96_ctype@h         8003306c00000001     infback.obj
 0005:0000006d       __149DB6BE_basetsd@h       8003306d00000001     infback.obj
 0005:0000006e       __9CFFAB73_corecrt_memcpy_s@h 8003306e00000001     infback.obj
 0005:0000006f       __55B7CB8D_corecrt_wstring@h 8003306f00000001     infback.obj
 0005:00000070       __2F7506B6_string@h        8003307000000001     infback.obj
 0005:00000071       __5BA8817F_winnt@h         8003307100000001     infback.obj
 0005:00000072       __8421AFE7_processthreadsapi@h 8003307200000001     infback.obj
 0005:00000073       __F192E00B_memoryapi@h     8003307300000001     infback.obj
 0005:00000074       __0DF854E2_winerror@h      8003307400000001     infback.obj
 0005:00000075       __940BF1C4_winbase@h       8003307500000001     infback.obj
 0005:00000076       __78A3E64A_stralign@h      8003307600000001     infback.obj
 0005:00000077       __55962C33_inffixed@h      8003307700000001     infback.obj
 0005:00000078       __B796723E_infback@c       8003307800000001     infback.obj
 0005:00000079       __DB664BEB_corecrt_stdio_config@h 8003307900000001     inffas8664.obj
 0005:0000007a       __E28BBA23_corecrt_wstdio@h 8003307a00000001     inffas8664.obj
 0005:0000007b       __4A1C29A8_stdio@h         8003307b00000001     inffas8664.obj
 0005:0000007c       __95347B96_ctype@h         8003307c00000001     inffas8664.obj
 0005:0000007d       __149DB6BE_basetsd@h       8003307d00000001     inffas8664.obj
 0005:0000007e       __9CFFAB73_corecrt_memcpy_s@h 8003307e00000001     inffas8664.obj
 0005:0000007f       __55B7CB8D_corecrt_wstring@h 8003307f00000001     inffas8664.obj
 0005:00000080       __2F7506B6_string@h        8003308000000001     inffas8664.obj
 0005:00000081       __5BA8817F_winnt@h         8003308100000001     inffas8664.obj
 0005:00000082       __8421AFE7_processthreadsapi@h 8003308200000001     inffas8664.obj
 0005:00000083       __F192E00B_memoryapi@h     8003308300000001     inffas8664.obj
 0005:00000084       __0DF854E2_winerror@h      8003308400000001     inffas8664.obj
 0005:00000085       __940BF1C4_winbase@h       8003308500000001     inffas8664.obj
 0005:00000086       __78A3E64A_stralign@h      8003308600000001     inffas8664.obj
 0005:00000087       __77E8E7A8_inffas8664@c    8003308700000001     inffas8664.obj
 0005:00000088       __95347B96_ctype@h         8003308800000001     inffast.obj
 0005:00000089       __149DB6BE_basetsd@h       8003308900000001     inffast.obj
 0005:0000008a       __9CFFAB73_corecrt_memcpy_s@h 8003308a00000001     inffast.obj
 0005:0000008b       __55B7CB8D_corecrt_wstring@h 8003308b00000001     inffast.obj
 0005:0000008c       __2F7506B6_string@h        8003308c00000001     inffast.obj
 0005:0000008d       __5BA8817F_winnt@h         8003308d00000001     inffast.obj
 0005:0000008e       __8421AFE7_processthreadsapi@h 8003308e00000001     inffast.obj
 0005:0000008f       __F192E00B_memoryapi@h     8003308f00000001     inffast.obj
 0005:00000090       __0DF854E2_winerror@h      8003309000000001     inffast.obj
 0005:00000091       __940BF1C4_winbase@h       8003309100000001     inffast.obj
 0005:00000092       __78A3E64A_stralign@h      8003309200000001     inffast.obj
 0005:00000093       __95347B96_ctype@h         8003309300000001     inflate.obj
 0005:00000094       __149DB6BE_basetsd@h       8003309400000001     inflate.obj
 0005:00000095       __9CFFAB73_corecrt_memcpy_s@h 8003309500000001     inflate.obj
 0005:00000096       __55B7CB8D_corecrt_wstring@h 8003309600000001     inflate.obj
 0005:00000097       __2F7506B6_string@h        8003309700000001     inflate.obj
 0005:00000098       __5BA8817F_winnt@h         8003309800000001     inflate.obj
 0005:00000099       __8421AFE7_processthreadsapi@h 8003309900000001     inflate.obj
 0005:0000009a       __F192E00B_memoryapi@h     8003309a00000001     inflate.obj
 0005:0000009b       __0DF854E2_winerror@h      8003309b00000001     inflate.obj
 0005:0000009c       __940BF1C4_winbase@h       8003309c00000001     inflate.obj
 0005:0000009d       __78A3E64A_stralign@h      8003309d00000001     inflate.obj
 0005:0000009e       __55962C33_inffixed@h      8003309e00000001     inflate.obj
 0005:0000009f       __4ACC5162_inflate@c       8003309f00000001     inflate.obj
 0005:000000a0       __95347B96_ctype@h         800330a000000001     inftrees.obj
 0005:000000a1       __149DB6BE_basetsd@h       800330a100000001     inftrees.obj
 0005:000000a2       __9CFFAB73_corecrt_memcpy_s@h 800330a200000001     inftrees.obj
 0005:000000a3       __55B7CB8D_corecrt_wstring@h 800330a300000001     inftrees.obj
 0005:000000a4       __2F7506B6_string@h        800330a400000001     inftrees.obj
 0005:000000a5       __5BA8817F_winnt@h         800330a500000001     inftrees.obj
 0005:000000a6       __8421AFE7_processthreadsapi@h 800330a600000001     inftrees.obj
 0005:000000a7       __F192E00B_memoryapi@h     800330a700000001     inftrees.obj
 0005:000000a8       __0DF854E2_winerror@h      800330a800000001     inftrees.obj
 0005:000000a9       __940BF1C4_winbase@h       800330a900000001     inftrees.obj
 0005:000000aa       __78A3E64A_stralign@h      800330aa00000001     inftrees.obj
 0005:000000ab       __DA0D6CC2_inftrees@c      800330ab00000001     inftrees.obj
 0005:000000ac       __DB664BEB_corecrt_stdio_config@h 800330ac00000001     ioapi.obj
 0005:000000ad       __E28BBA23_corecrt_wstdio@h 800330ad00000001     ioapi.obj
 0005:000000ae       __4A1C29A8_stdio@h         800330ae00000001     ioapi.obj
 0005:000000af       __95347B96_ctype@h         800330af00000001     ioapi.obj
 0005:000000b0       __149DB6BE_basetsd@h       800330b000000001     ioapi.obj
 0005:000000b1       __9CFFAB73_corecrt_memcpy_s@h 800330b100000001     ioapi.obj
 0005:000000b2       __55B7CB8D_corecrt_wstring@h 800330b200000001     ioapi.obj
 0005:000000b3       __2F7506B6_string@h        800330b300000001     ioapi.obj
 0005:000000b4       __5BA8817F_winnt@h         800330b400000001     ioapi.obj
 0005:000000b5       __8421AFE7_processthreadsapi@h 800330b500000001     ioapi.obj
 0005:000000b6       __F192E00B_memoryapi@h     800330b600000001     ioapi.obj
 0005:000000b7       __0DF854E2_winerror@h      800330b700000001     ioapi.obj
 0005:000000b8       __940BF1C4_winbase@h       800330b800000001     ioapi.obj
 0005:000000b9       __78A3E64A_stralign@h      800330b900000001     ioapi.obj
 0005:000000ba       __925E5E46_ioapi@c         800330ba00000001     ioapi.obj
 0005:000000bb       __95347B96_ctype@h         800330bb00000001     iowin32.obj
 0005:000000bc       __149DB6BE_basetsd@h       800330bc00000001     iowin32.obj
 0005:000000bd       __9CFFAB73_corecrt_memcpy_s@h 800330bd00000001     iowin32.obj
 0005:000000be       __55B7CB8D_corecrt_wstring@h 800330be00000001     iowin32.obj
 0005:000000bf       __2F7506B6_string@h        800330bf00000001     iowin32.obj
 0005:000000c0       __5BA8817F_winnt@h         800330c000000001     iowin32.obj
 0005:000000c1       __8421AFE7_processthreadsapi@h 800330c100000001     iowin32.obj
 0005:000000c2       __F192E00B_memoryapi@h     800330c200000001     iowin32.obj
 0005:000000c3       __0DF854E2_winerror@h      800330c300000001     iowin32.obj
 0005:000000c4       __940BF1C4_winbase@h       800330c400000001     iowin32.obj
 0005:000000c5       __78A3E64A_stralign@h      800330c500000001     iowin32.obj
 0005:000000c6       __DB664BEB_corecrt_stdio_config@h 800330c600000001     iowin32.obj
 0005:000000c7       __E28BBA23_corecrt_wstdio@h 800330c700000001     iowin32.obj
 0005:000000c8       __4A1C29A8_stdio@h         800330c800000001     iowin32.obj
 0005:000000c9       __A8B6D292_iowin32@c       800330c900000001     iowin32.obj
 0005:000000ca       __95347B96_ctype@h         800330ca00000001     trees.obj
 0005:000000cb       __149DB6BE_basetsd@h       800330cb00000001     trees.obj
 0005:000000cc       __9CFFAB73_corecrt_memcpy_s@h 800330cc00000001     trees.obj
 0005:000000cd       __55B7CB8D_corecrt_wstring@h 800330cd00000001     trees.obj
 0005:000000ce       __2F7506B6_string@h        800330ce00000001     trees.obj
 0005:000000cf       __5BA8817F_winnt@h         800330cf00000001     trees.obj
 0005:000000d0       __8421AFE7_processthreadsapi@h 800330d000000001     trees.obj
 0005:000000d1       __F192E00B_memoryapi@h     800330d100000001     trees.obj
 0005:000000d2       __0DF854E2_winerror@h      800330d200000001     trees.obj
 0005:000000d3       __940BF1C4_winbase@h       800330d300000001     trees.obj
 0005:000000d4       __78A3E64A_stralign@h      800330d400000001     trees.obj
 0005:000000d5       __669B3C77_trees@c         800330d500000001     trees.obj
 0005:000000d6       __95347B96_ctype@h         800330d600000001     uncompr.obj
 0005:000000d7       __149DB6BE_basetsd@h       800330d700000001     uncompr.obj
 0005:000000d8       __9CFFAB73_corecrt_memcpy_s@h 800330d800000001     uncompr.obj
 0005:000000d9       __55B7CB8D_corecrt_wstring@h 800330d900000001     uncompr.obj
 0005:000000da       __2F7506B6_string@h        800330da00000001     uncompr.obj
 0005:000000db       __5BA8817F_winnt@h         800330db00000001     uncompr.obj
 0005:000000dc       __8421AFE7_processthreadsapi@h 800330dc00000001     uncompr.obj
 0005:000000dd       __F192E00B_memoryapi@h     800330dd00000001     uncompr.obj
 0005:000000de       __0DF854E2_winerror@h      800330de00000001     uncompr.obj
 0005:000000df       __940BF1C4_winbase@h       800330df00000001     uncompr.obj
 0005:000000e0       __78A3E64A_stralign@h      800330e000000001     uncompr.obj
 0005:000000e1       __876F72AD_uncompr@c       800330e100000001     uncompr.obj
 0005:000000e2       __DB664BEB_corecrt_stdio_config@h 800330e200000001     unzip.obj
 0005:000000e3       __E28BBA23_corecrt_wstdio@h 800330e300000001     unzip.obj
 0005:000000e4       __4A1C29A8_stdio@h         800330e400000001     unzip.obj
 0005:000000e5       __9CFFAB73_corecrt_memcpy_s@h 800330e500000001     unzip.obj
 0005:000000e6       __55B7CB8D_corecrt_wstring@h 800330e600000001     unzip.obj
 0005:000000e7       __2F7506B6_string@h        800330e700000001     unzip.obj
 0005:000000e8       __95347B96_ctype@h         800330e800000001     unzip.obj
 0005:000000e9       __149DB6BE_basetsd@h       800330e900000001     unzip.obj
 0005:000000ea       __5BA8817F_winnt@h         800330ea00000001     unzip.obj
 0005:000000eb       __8421AFE7_processthreadsapi@h 800330eb00000001     unzip.obj
 0005:000000ec       __F192E00B_memoryapi@h     800330ec00000001     unzip.obj
 0005:000000ed       __0DF854E2_winerror@h      800330ed00000001     unzip.obj
 0005:000000ee       __940BF1C4_winbase@h       800330ee00000001     unzip.obj
 0005:000000ef       __78A3E64A_stralign@h      800330ef00000001     unzip.obj
 0005:000000f0       __D0AA5D20_unzip@c         800330f000000001     unzip.obj
 0005:000000f1       __DB664BEB_corecrt_stdio_config@h 800330f100000001     zip.obj
 0005:000000f2       __E28BBA23_corecrt_wstdio@h 800330f200000001     zip.obj
 0005:000000f3       __4A1C29A8_stdio@h         800330f300000001     zip.obj
 0005:000000f4       __9CFFAB73_corecrt_memcpy_s@h 800330f400000001     zip.obj
 0005:000000f5       __55B7CB8D_corecrt_wstring@h 800330f500000001     zip.obj
 0005:000000f6       __2F7506B6_string@h        800330f600000001     zip.obj
 0005:000000f7       __B47A7825_corecrt_wtime@h 800330f700000001     zip.obj
 0005:000000f8       __4436A688_time@h          800330f800000001     zip.obj
 0005:000000f9       __95347B96_ctype@h         800330f900000001     zip.obj
 0005:000000fa       __149DB6BE_basetsd@h       800330fa00000001     zip.obj
 0005:000000fb       __5BA8817F_winnt@h         800330fb00000001     zip.obj
 0005:000000fc       __8421AFE7_processthreadsapi@h 800330fc00000001     zip.obj
 0005:000000fd       __F192E00B_memoryapi@h     800330fd00000001     zip.obj
 0005:000000fe       __0DF854E2_winerror@h      800330fe00000001     zip.obj
 0005:000000ff       __940BF1C4_winbase@h       800330ff00000001     zip.obj
 0005:00000100       __78A3E64A_stralign@h      8003310000000001     zip.obj
 0005:00000101       __5ADA25A5_crypt@h         8003310100000001     zip.obj
 0005:00000102       __D883BE7D_zip@c           8003310200000001     zip.obj
 0005:00000103       __95347B96_ctype@h         8003310300000001     zutil.obj
 0005:00000104       __149DB6BE_basetsd@h       8003310400000001     zutil.obj
 0005:00000105       __9CFFAB73_corecrt_memcpy_s@h 8003310500000001     zutil.obj
 0005:00000106       __55B7CB8D_corecrt_wstring@h 8003310600000001     zutil.obj
 0005:00000107       __2F7506B6_string@h        8003310700000001     zutil.obj
 0005:00000108       __5BA8817F_winnt@h         8003310800000001     zutil.obj
 0005:00000109       __8421AFE7_processthreadsapi@h 8003310900000001     zutil.obj
 0005:0000010a       __F192E00B_memoryapi@h     8003310a00000001     zutil.obj
 0005:0000010b       __0DF854E2_winerror@h      8003310b00000001     zutil.obj
 0005:0000010c       __940BF1C4_winbase@h       8003310c00000001     zutil.obj
 0005:0000010d       __78A3E64A_stralign@h      8003310d00000001     zutil.obj
 0005:0000010e       __DB664BEB_corecrt_stdio_config@h 8003310e00000001     zutil.obj
 0005:0000010f       __E28BBA23_corecrt_wstdio@h 8003310f00000001     zutil.obj
 0005:00000110       __4A1C29A8_stdio@h         8003311000000001     zutil.obj
 0005:00000111       __2B8D9255_zutil@c         8003311100000001     zutil.obj
 0006:00000060       $R000000                   8003406000000001     zlib.res
