; Listing generated by Microsoft (R) Optimizing Compiler Version 19.20.27525.0 

	TITLE	e:\cpython\externals\zlib-1.2.11\gzclose.c
	.686P
	.XMM
	include listing.inc
	.model	flat

INCLUDELIB OLDNAMES

COMM	?_OptionsStorage@?1??__local_stdio_scanf_options@@9@9:QWORD							; `__local_stdio_scanf_options'::`2'::_OptionsStorage
COMM	?_OptionsStorage@?1??__local_stdio_printf_options@@9@9:QWORD							; `__local_stdio_printf_options'::`2'::_OptionsStorage
_DATA	ENDS
__DB664BEB_corecrt_stdio_config@h DB 01H
__E28BBA23_corecrt_wstdio@h DB 01H
__4A1C29A8_stdio@h DB 01H
__95347B96_ctype@h DB 01H
__149DB6BE_basetsd@h DB 01H
__9CFFAB73_corecrt_memcpy_s@h DB 01H
__55B7CB8D_corecrt_wstring@h DB 01H
__2F7506B6_string@h DB 01H
__5BA8817F_winnt@h DB 01H
__8421AFE7_processthreadsapi@h DB 01H
__F192E00B_memoryapi@h DB 01H
__0DF854E2_winerror@h DB 01H
__940BF1C4_winbase@h DB 01H
__78A3E64A_stralign@h DB 01H
__0A201C5E_gzclose@c DB 01H
PUBLIC	_gzclose@4
; Function compile flags: /Odtp /RTCsu
; File E:\cpython\externals\zlib-1.2.11\gzclose.c
;	COMDAT _gzclose@4
_TEXT	SEGMENT
tv71 = -8						; size = 4
_state$ = -4						; size = 4
_file$ = 8						; size = 4
_gzclose@4 PROC						; COMDAT

; 13   : {

  00000	55		 push	 ebp
  00001	8b ec		 mov	 ebp, esp
  00003	83 ec 08	 sub	 esp, 8
  00006	c7 45 f8 cc cc
	cc cc		 mov	 DWORD PTR [ebp-8], -858993460 ; ccccccccH
  0000d	c7 45 fc cc cc
	cc cc		 mov	 DWORD PTR [ebp-4], -858993460 ; ccccccccH
  00014	b9 00 00 00 00	 mov	 ecx, OFFSET __2B8D9255_zutil@c
  00019	e8 00 00 00 00	 call	 @__CheckForDebuggerJustMyCode@4

; 14   : #ifndef NO_GZCOMPRESS
; 15   :     gz_statep state;
; 16   : 
; 17   :     if (file == NULL)

  0001e	83 7d 08 00	 cmp	 DWORD PTR _file$[ebp], 0
  00022	75 07		 jne	 SHORT $LN2@gzclose

; 18   :         return Z_STREAM_ERROR;

  00024	b8 fe ff ff ff	 mov	 eax, -2			; fffffffeH
  00029	eb 2f		 jmp	 SHORT $LN1@gzclose
$LN2@gzclose:

; 19   :     state = (gz_statep)file;

  0002b	8b 45 08	 mov	 eax, DWORD PTR _file$[ebp]
  0002e	89 45 fc	 mov	 DWORD PTR _state$[ebp], eax

; 20   : 
; 21   :     return state->mode == GZ_READ ? gzclose_r(file) : gzclose_w(file);

  00031	8b 4d fc	 mov	 ecx, DWORD PTR _state$[ebp]
  00034	81 79 10 4f 1c
	00 00		 cmp	 DWORD PTR [ecx+16], 7247 ; 00001c4fH
  0003b	75 0e		 jne	 SHORT $LN4@gzclose
  0003d	8b 55 08	 mov	 edx, DWORD PTR _file$[ebp]
  00040	52		 push	 edx
  00041	e8 00 00 00 00	 call	 _gzclose_r@4
  00046	89 45 f8	 mov	 DWORD PTR tv71[ebp], eax
  00049	eb 0c		 jmp	 SHORT $LN5@gzclose
$LN4@gzclose:
  0004b	8b 45 08	 mov	 eax, DWORD PTR _file$[ebp]
  0004e	50		 push	 eax
  0004f	e8 00 00 00 00	 call	 _gzclose_w@4
  00054	89 45 f8	 mov	 DWORD PTR tv71[ebp], eax
$LN5@gzclose:
  00057	8b 45 f8	 mov	 eax, DWORD PTR tv71[ebp]
$LN1@gzclose:

; 22   : #else
; 23   :     return gzclose_r(file);
; 24   : #endif
; 25   : }

  0005a	83 c4 08	 add	 esp, 8
  0005d	3b ec		 cmp	 ebp, esp
  0005f	e8 00 00 00 00	 call	 __RTC_CheckEsp
  00064	8b e5		 mov	 esp, ebp
  00066	5d		 pop	 ebp
  00067	c2 04 00	 ret	 4
_gzclose@4 ENDP
_TEXT	ENDS
END
