Certificate Request:
    Data:
        Version: 2 (0x2)
        Subject: C=US, ST=Texas, L=Austin, O=PyCA, CN=cryptography.io
        Subject Public Key Info:
            Public Key Algorithm: rsaEncryption
            RSA Public Key: (2048 bit)
                Modulus (2048 bit):
                    00:e0:ca:5f:ec:b5:1b:cc:8b:32:41:a9:85:ac:bd:
                    9f:34:0a:eb:c0:a0:74:74:74:7c:f5:ad:84:c4:0b:
                    7e:e0:08:fe:90:f3:0e:94:d9:4a:47:9d:65:df:c0:
                    28:4e:ec:25:43:b2:af:b6:5e:f2:fe:de:3e:48:9e:
                    5c:77:67:fa:f9:ff:68:ee:6f:93:45:28:b6:f8:64:
                    98:05:37:92:d1:96:55:f2:49:15:03:31:00:c3:8d:
                    d4:9e:88:b7:d3:81:e3:8d:c1:10:5e:57:87:db:4f:
                    ba:b4:c9:1c:9f:b7:e7:5a:78:0d:b0:0f:b5:b3:72:
                    bf:61:4d:ca:99:fc:53:e7:54:3d:35:c4:93:6b:ad:
                    2b:37:75:46:89:3e:20:b3:6b:16:74:d4:c6:bd:a6:
                    84:16:4f:45:3c:c4:9a:ce:31:76:63:32:14:6f:d1:
                    6c:0c:95:dc:01:ca:37:67:77:d6:b8:5b:c4:5a:4c:
                    3a:48:6c:85:4b:e5:78:7f:35:aa:fa:e0:60:ab:17:
                    de:87:31:49:66:35:aa:0b:7f:06:35:7d:c7:1c:66:
                    8a:20:d7:b1:79:38:53:88:cd:27:67:fa:14:81:64:
                    8c:8e:92:2e:08:1d:5b:28:52:30:87:42:93:d3:f3:
                    f6:e6:cd:d4:a4:a8:fb:fd:51:6b:1b:a1:ed:a3:c1:
                    a4:0b
                Exponent: 65537 (0x10001)
        Attributes:
        Requested Extensions:
            1.2.3.4: 
                value
    Signature Algorithm: sha1WithRSAEncryption
        38:bd:c2:b8:c9:8d:23:e9:b6:aa:fe:dc:43:45:8f:2d:ec:d1:
        90:be:fa:a6:4e:78:d4:29:90:c4:dd:f9:a4:6c:e9:1a:2b:e7:
        f9:54:6e:35:ef:a0:11:e3:32:b4:d8:e9:bb:d8:a1:bc:9a:6f:
        09:87:a0:eb:80:6f:55:63:1f:81:ec:fc:a9:66:4c:13:71:32:
        f9:a0:1b:b5:70:28:d6:94:57:41:66:3a:48:78:df:e6:fe:ae:
        1d:64:01:5a:bb:17:f3:77:ed:d2:91:d1:69:f8:ac:51:89:d9:
        5a:54:fd:25:f5:64:89:bc:9b:c6:66:04:96:05:f9:fc:42:ad:
        e6:f5:e9:e0:af:ec:6e:20:50:55:73:3d:a4:42:4e:4a:05:b6:
        77:e8:72:03:1e:7d:ac:7f:19:c3:82:11:0b:54:56:17:f8:a8:
        18:86:c2:ee:dc:84:68:18:9d:3f:dc:ab:78:08:2a:84:4b:bb:
        0a:ac:0d:7c:91:c9:8c:7e:1c:46:1f:e2:99:36:be:7a:1f:55:
        75:b5:5e:fa:d5:b0:b1:73:e2:e7:5f:dc:0c:8a:37:8d:fd:69:
        1b:24:35:12:f6:45:02:71:bd:13:f6:bd:27:c7:aa:e5:39:bf:
        e0:20:9b:87:c0:32:e7:94:06:6c:06:2a:e0:6f:df:61:b3:06:
        8b:1b:3a:93
-----BEGIN CERTIFICATE REQUEST-----
MIICuzCCAaMCAQIwVzELMAkGA1UEBhMCVVMxDjAMBgNVBAgMBVRleGFzMQ8wDQYD
VQQHDAZBdXN0aW4xDTALBgNVBAoMBFB5Q0ExGDAWBgNVBAMMD2NyeXB0b2dyYXBo
eS5pbzCCASIwDQYJKoZIhvcNAQEBBQADggEPADCCAQoCggEBAODKX+y1G8yLMkGp
hay9nzQK68CgdHR0fPWthMQLfuAI/pDzDpTZSkedZd/AKE7sJUOyr7Ze8v7ePkie
XHdn+vn/aO5vk0UotvhkmAU3ktGWVfJJFQMxAMON1J6It9OB443BEF5Xh9tPurTJ
HJ+351p4DbAPtbNyv2FNypn8U+dUPTXEk2utKzd1Rok+ILNrFnTUxr2mhBZPRTzE
ms4xdmMyFG/RbAyV3AHKN2d31rhbxFpMOkhshUvleH81qvrgYKsX3ocxSWY1qgt/
BjV9xxxmiiDXsXk4U4jNJ2f6FIFkjI6SLggdWyhSMIdCk9Pz9ubN1KSo+/1Raxuh
7aPBpAsCAwEAAaAfMB0GCSqGSIb3DQEJDjEQMA4wDAYDKgMEBAV2YWx1ZTANBgkq
hkiG9w0BAQUFAAOCAQEAOL3CuMmNI+m2qv7cQ0WPLezRkL76pk541CmQxN35pGzp
Givn+VRuNe+gEeMytNjpu9ihvJpvCYeg64BvVWMfgez8qWZME3Ey+aAbtXAo1pRX
QWY6SHjf5v6uHWQBWrsX83ft0pHRafisUYnZWlT9JfVkibybxmYElgX5/EKt5vXp
4K/sbiBQVXM9pEJOSgW2d+hyAx59rH8Zw4IRC1RWF/ioGIbC7tyEaBidP9yreAgq
hEu7CqwNfJHJjH4cRh/imTa+eh9VdbVe+tWwsXPi51/cDIo3jf1pGyQ1EvZFAnG9
E/a9J8eq5Tm/4CCbh8Ay55QGbAYq4G/fYbMGixs6kw==
-----END CERTIFICATE REQUEST-----
